
depend_Release_CSR101x_A05/cryptobeacon.elf:     file format elf32-xap2

Disassembly of section .text:

0x00000010 <PROG_PATCH_ADDRESS>:
      10:	02AE      	ror        @(+0x2, x)
      11:	7F75      	nadd       al, @0x7F <___libgatt_lib_db_3936+0x8>
      12:	2000      	**prefx    0x20
      13:	17DE      	xor        y, @(+0x2017, x)
      14:	DC20      	bgt        -0x24 <___libgatt_lib_db_1306+0x7FFFF0:0xFFFFF0[p]>
      15:	201E      	ld         y, @(+0x20, x)
      16:	19C6      	and        al, @(+0x19, x)
      17:	C720      	bgt        -0x39 <___libgatt_lib_db_1306+0x7FFFDE:0xFFFFDE[p]>
      18:	2014      	ld         al, #+0x20
      19:	55C1      	and        ah, @0x55 <___libgatt_lib_db_2574>
      1A:	C420      	bgt        -0x3C <___libgatt_lib_db_1306+0x7FFFDE:0xFFFFDE[p]>
      1B:	200A      	st         xh, @(+0x20, y)
      1C:	09C0      	and        ah, #0x9
      1D:	C220      	bgt        -0x3E <___libgatt_lib_db_1306+0x7FFFDF:0xFFFFDF[p]>
      1E:	804E      	addc       y, @(-0x80, x)
      1F:	21E6      	blt        +0x21, x
      20:	21C3      	and        ah, @(+0x21, y)
      21:	2196      	sdiv       @(+0x21, x)
      22:	416F      	subc       y, @(+0x41, y)
      23:	4111      	ld         ah, @0x41 <___libgatt_lib_db_224>
      24:	9057      	sub        al, @(-0x70, y)
      25:	3801      	st         flags, @(+0x38, y)
      26:	B4E0      	bra        -0x4C <___libgatt_lib_db_1306+0x7FFFDA:0xFFFFDA[p]>
      27:	02C2      	and        ah, @(+0x2, x)
      28:	0D80      	cmp        ah, #+0xD
      29:	C3B4      	or         al, #-0x3D
      2A:	8002      	st         ux, @(-0x80, y)
      2B:	B408      	**Unknown**
      2C:	02C4      	and        al, #0x2
      2D:	0380      	cmp        ah, #+0x3
      2E:	C6B4      	or         al, #-0x3A
      2F:	9022      	st         ah, @(-0x70, x)
      30:	E800      	**prefx    0xE8
      31:	70E0      	bra        -0x1790 <___libgatt_lib_db_1306+0x7FE8A1:0xFFE8A1[p]>
      32:	901C      	ld         y, #-0x70
      33:	E900      	**prefx    0xE9
      34:	70E0      	bra        -0x1690 <___libgatt_lib_db_1306+0x7FE9A4:0xFFE9A4[p]>
      35:	9016      	ld         al, @(-0x70, x)
      36:	6000      	**prefx    0x60
      37:	60E0      	bra        +0x6060 <___libgatt_lib_db_3843+0x81D:0x6097[p]>
      38:	2402      	st         ux, @(+0x24, y)
      39:	F802      	st         ux, @(-0x8, y)
      3A:	0290      	smult      #+0x2
      3B:	E058      	sub        x, #-0x20
      3C:	9028      	ble        -0x70 <___libgatt_lib_db_1306+0x7FFFCC:0xFFFFCC[p]>
      3D:	1802      	st         ux, @(+0x18, y)
      3E:	90F0      	bne        -0x70 <___libgatt_lib_db_1306+0x7FFFCE:0xFFFFCE[p]>
      3F:	1F02      	st         ux, @(+0x1F, y)
      40:	75F0      	bne        +0x75 <___libgatt_lib_db_4094:0xB5[p]>
      41:	10E8      	bpl        +0x10 <___libgatt_lib_db_2885:0x51[p]>
      42:	E875      	nadd       al, @0xFFE8 <(scratchpad)>
      43:	8000      	**prefx    0x80
      44:	809C      	bsr        -0x8080 <___libgatt_lib_db_1306+0x7F7FC4:0xFF7FC4[p]>
      45:	904E      	addc       y, @(-0x70, x)
      46:	E800      	**prefx    0xE8
      47:	B4E0      	bra        -0x184C <___libgatt_lib_db_1306+0x7FE7FB:0xFFE7FB[p]>
      48:	1706      	ld         ux, @(+0x17, y)
      49:	0290      	smult      #+0x2
      4A:	EA00      	**prefx    0xEA
      4B:	A3F0      	bne        -0x165D <___libgatt_lib_db_1306+0x7FE9EE:0xFFE9EE[p]>
      4C:	F0EB      	bpl        @(-0x10, y)
      4D:	E0A3      	asl        @(-0x20, y)
      4E:	A3F0      	bne        -0x5D <___libgatt_lib_db_1306+0x7FFFF1:0xFFFFF1[p]>
      4F:	F0E0      	bra        -0x10 <___libgatt_lib_db_2824:0x3F[p]>
      50:	E0A3      	asl        @(-0x20, y)
      51:	90F0      	bne        -0x70 <___libgatt_lib_db_1306+0x7FFFE1:0xFFFFE1[p]>
      52:	0702      	st         ux, @(+0x7, y)
      53:	80F0      	bne        -0x80 <___libgatt_lib_db_1306+0x7FFFD3:0xFFFFD3[p]>
      54:	9028      	ble        -0x70 <___libgatt_lib_db_1306+0x7FFFE4:0xFFFFE4[p]>
      55:	0002      	st         ux, @(0x0, y)
      56:	F8E0      	bra        -0x8 <UART_RATE_19K2:0x4E[p]>
      57:	9AC3      	and        ah, @(-0x66, y)
      58:	0670      	nadd       ah, #+0x6
      59:	E0A3      	asl        @(-0x20, y)
      5A:	9BF9      	bcc        @0xFF9B <___libgatt_lib_db_2743+0x11A>
      5B:	1960      	subc       ah, #+0x19
      5C:	0190      	smult      #+0x1
      5D:	E0D8      	xor        x, #0xFFE0
      5E:	9AC3      	and        ah, @(-0x66, y)
      5F:	A3FC      	bcs        -0x5D <___libgatt_lib_db_1076:0x2[p]>
      60:	9BE0      	bra        -0x65 <___libgatt_lib_db_1306+0x7FFFFB:0xFFFFFB[p]>
      61:	ECFD      	bcs        @0xFFEC <(scratchpad)>
      62:	9028      	ble        -0x70 <___libgatt_lib_db_1306+0x7FFFF2:0xFFFFF2[p]>
      63:	D801      	st         flags, @(-0x28, y)
      64:	EDF0      	bne        -0x13 <___libgatt_lib_db_2885:0x51[p]>
      65:	A339      	add        x, @0xFFA3 <___libgatt_lib_db_2743+0x122>
      66:	90F0      	bne        -0x70 <___libgatt_lib_db_1306+0x7FFFF6:0xFFFFF6[p]>
      67:	DF01      	st         flags, @(-0x21, y)
      68:	75F0      	bne        +0x75 <___libgatt_lib_db_460+0x1:0xDD[p]>
      69:	04C8      	and        x, #0x4
      6A:	C875      	nadd       al, @0xFFC8 <___libgatt_lib_db_2743+0x147>
      6B:	0100      	**prefx    0x1
      6C:	9003      	st         uy, @(+0x90, y)
      6D:	F001      	st         flags, @(-0x10, y)
      6E:	30E0      	bra        +0x30 <UART_RATE_38K4:0x9E[p]>
      6F:	25E0      	bra        +0x25 <___libgatt_lib_db_203:0x94[p]>
      70:	0190      	smult      #+0x1
      71:	E0D8      	xor        x, #0xFFE0
      72:	90F9      	bcc        @0xFF90 <___libgatt_lib_db_2743+0x10F>
      73:	7001      	st         flags, @(+0x70, y)
      74:	C3E0      	bra        -0x3D <___libgatt_lib_db_129:0x37[p]>
      75:	7099      	tst        @0x70 <___libgatt_lib_db_4057>
      76:	9018      	ld         x, #-0x70
      77:	D901      	st         flags, @(-0x27, y)
      78:	F9E0      	bra        -0x7 <___libgatt_lib_db_3993:0x71[p]>
      79:	0190      	smult      #+0x1
      7A:	E071      	nadd       ah, @0xFFE0 <register ah>
      7B:	99C3      	and        ah, @(-0x67, y)
      7C:	0B70      	nadd       ah, #+0xB
      7D:	0290      	smult      #+0x2
      7E:	E0F8      	bcc        -0x20 <___libgatt_lib_db_2586:0x5E[p]>
      7F:	0154      	sub        al, #+0x1
      80:	90F0      	bne        -0x70 <PROG_APPCODE_START:0x10[p]>
      81:	FF02      	st         ux, @(-0x1, y)
      82:	90F0      	bne        -0x70 <___libgatt_lib_db_2070:0x12[p]>
      83:	E800      	**prefx    0xE8
      84:	F8E0      	bra        -0x1808 <___libgatt_lib_db_1306+0x7FE87C:0xFFE87C[p]>
      85:	0290      	smult      #+0x2
      86:	E000      	**prefx    0xE0
      87:	B8FA      	bcc        -0x2048, x
      88:	0306      	ld         ux, @(+0x3, y)
      89:	0274      	nadd       al, #+0x2
      8A:	A3F0      	bne        -0x5D <___libgatt_lib_db_2509:0x2D[p]>
      8B:	FBE0      	bra        -0x5 <___libgatt_lib_db_4491:0x86[p]>
      8C:	06B8      	or         x, #+0x6
      8D:	7410      	ld         ah, #+0x74
      8E:	F000      	**prefx    0xF0
      8F:	E0A3      	asl        @(-0x1020, y)
      90:	A3F0      	bne        -0x5D <___libgatt_lib_db_2530:0x33[p]>
      91:	F0E0      	bra        -0x10 <___libgatt_lib_db_108:0x81[p]>
      92:	E0A3      	asl        @(-0x20, y)
      93:	90F0      	bne        -0x70 <___libgatt_lib_db_102:0x23[p]>
      94:	0702      	st         ux, @(+0x7, y)
      95:	90F0      	bne        -0x70 <___libgatt_lib_db_179:0x25[p]>
      96:	F001      	st         flags, @(-0x10, y)
      97:	30E0      	bra        +0x30 <__size_of_gattSetAdvertParams:0xC7[p]>
      98:	57E1      	bra        @0x57 <___libgatt_lib_db_2589>
      99:	D3D2      	xor        ah, @(-0x2D, x)
      9A:	A3F0      	bne        -0x5D <___libgatt_lib_db_2594:0x3D[p]>
      9B:	F0E0      	bra        -0x10 <___libgatt_lib_db_4318+0x1:0x8B[p]>
      9C:	E0A3      	asl        @(-0x20, y)
      9D:	0B54      	sub        al, #+0xB
      9E:	90F0      	bne        -0x70 <___libgatt_lib_db_2521:0x2E[p]>
      9F:	F701      	st         flags, @(-0x9, y)
      A0:	90F0      	bne        -0x70 <___libgatt_lib_db_130:0x30[p]>
      A1:	C002      	st         ux, @(-0x40, y)
      A2:	F8E0      	bra        -0x8 <___libgatt_lib_db_4378:0x9A[p]>
      A3:	E0A3      	asl        @(-0x20, y)
      A4:	A3F9      	bcc        @0xFFA3 <___libgatt_lib_db_2743+0x122>
      A5:	30E0      	bra        +0x30 <.LASFDE14+0x1:0xD5[p]>
      A6:	07E6      	blt        +0x7, x
      A7:	E7D2      	xor        ah, @(-0x19, x)
      A8:	7BFA      	bcc        +0x7B, x
      A9:	80FF      	bcs        @(-0x80, y)
      AA:	C205      	ld         flags, @(-0x3E, y)
      AB:	FAE7      	blt        @(-0x6, y)
      AC:	007B      	nadd       x, @(0x0, y)
      AD:	0290      	smult      #+0x2
      AE:	E4C0      	and        ah, #0xFFE4
      AF:	A3F0      	bne        -0x5D <___libgatt_lib_db_122:0x52[p]>
      B0:	A3F0      	bne        -0x5D <___libgatt_lib_db_2573:0x53[p]>
      B1:	A3F0      	bne        -0x5D <___libgatt_lib_db_10:0x54[p]>
      B2:	A3F0      	bne        -0x5D <___libgatt_lib_db_2574:0x55[p]>
      B3:	A3F0      	bne        -0x5D <___libgatt_lib_db_2532:0x56[p]>
      B4:	F0A3      	asl        @(-0x10, y)
      B5:	90C3      	and        ah, @(-0x70, y)
      B6:	C001      	st         flags, @(-0x40, y)
      B7:	98E0      	bra        -0x68 <___libgatt_lib_db_20:0x4F[p]>
      B8:	A3F0      	bne        -0x5D <___libgatt_lib_db_2563:0x5B[p]>
      B9:	99E0      	bra        -0x67 <___libgatt_lib_db_122:0x52[p]>
      BA:	A3F0      	bne        -0x5D <___libgatt_lib_db_121:0x5D[p]>
      BB:	9AE0      	bra        -0x66 <___libgatt_lib_db_2574:0x55[p]>
      BC:	A3F0      	bne        -0x5D <___libgatt_lib_db_2528:0x5F[p]>
      BD:	9BE0      	bra        -0x65 <CSTORE_SIZE:0x58[p]>
      BE:	A3F0      	bne        -0x5D <___libgatt_lib_db_2556:0x61[p]>
      BF:	9BE0      	bra        -0x65 <___libgatt_lib_db_2564:0x5A[p]>
      C0:	A3F0      	bne        -0x5D <___libgatt_lib_db_249:0x63[p]>
      C1:	9BE0      	bra        -0x65 <___libgatt_lib_db_2547:0x5C[p]>
      C2:	A3F0      	bne        -0x5D <___libgatt_lib_db_2508:0x65[p]>
      C3:	C2F0      	bne        -0x3E <___libgatt_lib_db_4509:0x85[p]>
      C4:	75D3      	xor        ah, @(+0x75, y)
      C5:	02C8      	and        x, #0x2
      C6:	C875      	nadd       al, @0xFFC8 <___libgatt_lib_db_2743+0x147>
      C7:	0100      	**prefx    0x1
      C8:	9003      	st         uy, @(+0x90, y)
      C9:	F001      	st         flags, @(-0x10, y)
      CA:	30E0      	bra        +0x30 <___libgatt_lib_db_4622+0x4:0xFA[p]>
      CB:	18E5      	blt        @0x18 <___libgatt_lib_db_1364>
      CC:	0190      	smult      #+0x1
      CD:	E0A0      	asl        #0xFFE0
      CE:	A3F0      	bne        -0x5D <___libgatt_lib_db_3993:0x71[p]>
      CF:	F0E0      	bra        -0x10 <___libgatt_lib_db_136+0x1:0xBF[p]>
      D0:	E0A3      	asl        @(-0x20, y)
      D1:	A3F0      	bne        -0x5D <__size_of_SetLEDColor:0x74[p]>
      D2:	F0E0      	bra        -0x10 <___libgatt_lib_db_2929:0xC2[p]>
      D3:	E0A3      	asl        @(-0x20, y)
      D4:	A3F0      	bne        -0x5D <___libgatt_lib_db_3936:0x77[p]>
      D5:	F0E0      	bra        -0x10 <___libgatt_lib_db_2931:0xC5[p]>
      D6:	0290      	smult      #+0x2
      D7:	F02F      	st         y, @(-0x10, y)
      D8:	C875      	nadd       al, @0xFFC8 <___libgatt_lib_db_2743+0x147>
      D9:	7501      	st         flags, @(+0x75, y)
      DA:	00C8      	and        x, #0x0
      DB:	0301      	st         flags, @(+0x3, y)
      DC:	0190      	smult      #+0x1
      DD:	E028      	ble        -0x20 <.LASFDE12+0x1:0xBD[p]>
      DE:	45B4      	or         al, #+0x45
      DF:	901E      	ld         y, @(-0x70, x)
      E0:	0000      	**prefx    0x0
      E1:	F0E0      	bra        -0x10 <__size_of_startBeaconAdvertising:0xD1[p]>
      E2:	A3FF      	bcs        @(-0x5D, y)
      E3:	F0E0      	bra        -0x10 <___libgatt_lib_db_239:0xD3[p]>
      E4:	90FE      	bcs        -0x70, x
      E5:	8000      	**prefx    0x80
      E6:	FDE0      	bra        -0x8003 <___libgatt_lib_db_1306+0x7F80E3:0xFF80E3[p]>
      E7:	E0A3      	asl        @(-0x20, y)
      E8:	EFFC      	bcs        -0x11 <.LASFDE14+0x3:0xD7[p]>
      E9:	9DC3      	and        ah, @(-0x63, y)
      EA:	9CEE      	bmi        -0x64, x
      EB:	E730      	add        ah, #-0x19
      EC:	9004      	**Unknown**
      ED:	8700      	**prefx    0x87
      EE:	75F0      	bne        -0x788B <___libgatt_lib_db_1306+0x7F8863:0xFF8863[p]>
      EF:	10C8      	and        x, #0x10
      F0:	C875      	nadd       al, @0xFFC8 <___libgatt_lib_db_2743+0x147>
      F1:	0100      	**prefx    0x1
      F2:	9003      	st         uy, @(+0x90, y)
      F3:	E800      	**prefx    0xE8
      F4:	30E0      	bra        -0x17D0 <___libgatt_lib_db_1306+0x7FE924:0xFFE924[p]>
      F5:	3FE2      	bra        +0x3F, x
      F6:	0190      	smult      #+0x1
      F7:	E038      	add        x, #-0x20
      F8:	CAB4      	or         al, #-0x36
      F9:	8002      	st         ux, @(-0x80, y)
      FA:	B417      	ld         al, @(-0x4C, y)
      FB:	02C9      	and        x, @0x2 <___libgatt_lib_db_1076>
      FC:	1280      	cmp        ah, #+0x12
      FD:	CBB4      	or         al, #-0x35
      FE:	8002      	st         ux, @(-0x80, y)
      FF:	B40D      	rti        @(-0x4C, y)
     100:	02CC      	and        y, #0x2
     101:	0880      	cmp        ah, #+0x8
     102:	CDB4      	or         al, #-0x33
     103:	8002      	st         ux, @(-0x80, y)
     104:	B403      	st         uy, @(-0x4C, y)
     105:	1FAF      	ror        @(+0x1F, y)
     106:	0190      	smult      #+0x1
     107:	E0F0      	bne        -0x20 <ROMDATA_SIZE+0x1:0xE7[p]>
     108:	0444      	addc       al, #+0x4
     109:	A3F0      	bne        -0x5D <___libgatt_lib_db_2991:0xAC[p]>
     10A:	F0E0      	bra        -0x10 <___libgatt_lib_db_4622+0x4:0xFA[p]>
     10B:	E0A3      	asl        @(-0x20, y)
     10C:	90F0      	bne        -0x70 <___libgatt_lib_db_4107+0x1:0x9C[p]>
     10D:	F701      	st         flags, @(-0x9, y)
     10E:	90F0      	bne        -0x70 <UART_RATE_38K4:0x9E[p]>
     10F:	E800      	**prefx    0xE8
     110:	C2E0      	bra        -0x183E <___libgatt_lib_db_1306+0x7FE8D2:0xFFE8D2[p]>
     111:	F0E6      	blt        -0x10, x
     112:	E0A3      	asl        @(-0x20, y)
     113:	90F0      	bne        -0x70 <___libgatt_lib_db_2969:0xA3[p]>
     114:	EF00      	**prefx    0xEF
     115:	75F0      	bne        -0x108B <___libgatt_lib_db_1306+0x7FF08A:0xFFF08A[p]>
     116:	40E8      	bpl        +0x40 <.LASFDE2+0xA:0x156[p]>
     117:	E875      	nadd       al, @0xFFE8 <(scratchpad)>
     118:	0100      	**prefx    0x1
     119:	E503      	st         uy, @(+0xE5, y)
     11A:	607F      	nadd       y, @(+0x60, y)
     11B:	903A      	add        x, @(-0x70, x)
     11C:	2801      	st         flags, @(+0x28, y)
     11D:	4B74      	nadd       al, #+0x4B
     11E:	90F0      	bne        -0x70 <___libgatt_lib_db_2981+0x1:0xAE[p]>
     11F:	2F01      	st         flags, @(+0x2F, y)
     120:	75F0      	bne        +0x75 <.LVL4+0x2:0x195[p]>
     121:	007F      	nadd       y, @(0x0, y)
     122:	0290      	smult      #+0x2
     123:	E080      	cmp        ah, #-0x20
     124:	2323      	st         ah, @(+0x23, y)
     125:	90F8      	bcc        -0x70 <___libgatt_lib_db_4094:0xB5[p]>
     126:	4002      	st         ux, @(+0x40, y)
     127:	48E0      	bra        +0x48 <L0+0x4:0x16F[p]>
     128:	0090      	smult      #+0x0
     129:	F0F0      	bne        -0x10 <.LASFDE0+0x5:0x119[p]>
     12A:	0090      	smult      #+0x0
     12B:	F0F7      	beq        @(-0x10, y)
     12C:	0290      	smult      #+0x2
     12D:	E098      	tst        #-0x20
     12E:	0190      	smult      #+0x1
     12F:	F0A8      	rol        #0xFFF0
     130:	E0A3      	asl        @(-0x20, y)
     131:	A3F0      	bne        -0x5D <.LASFDE14:0xD4[p]>
     132:	F0E0      	bra        -0x10 <.LASFDE0+0xE:0x122[p]>
     133:	E0A3      	asl        @(-0x20, y)
     134:	A3F0      	bne        -0x5D <.LASFDE14+0x3:0xD7[p]>
     135:	F0E0      	bra        -0x10 <.LASFDE0+0x11:0x125[p]>
     136:	E0A3      	asl        @(-0x20, y)
     137:	A3F0      	bne        -0x5D <.LASFDE14+0x6:0xDA[p]>
     138:	75F0      	bne        +0x75 <.LVL1+0x3:0x1AD[p]>
     139:	80C8      	and        x, #0xFF80
     13A:	C875      	nadd       al, @0xFFC8 <___libgatt_lib_db_2743+0x147>
     13B:	0100      	**prefx    0x1
     13C:	9003      	st         uy, @(+0x90, y)
     13D:	3801      	st         flags, @(+0x38, y)
     13E:	54E0      	bra        +0x54 <.LVL3+0x4:0x192[p]>
     13F:	B4FE      	bcs        -0x4C, x
     140:	45CA      	and        x, @(+0x45, x)
     141:	0290      	smult      #+0x2
     142:	E070      	nadd       ah, #-0x20
     143:	F5F9      	bcc        @0xFFF5 <(scratchpad)>
     144:	7582      	cmp        ah, @(+0x75, x)
     145:	0883      	cmp        ah, @(+0x8, y)
     146:	F4E0      	bra        -0xC <.LECIE0+0x2:0x13A[p]>
     147:	0354      	sub        al, #+0x3
     148:	3560      	subc       ah, #+0x35
     149:	0090      	smult      #+0x0
     14A:	E060      	subc       ah, #-0x20
     14B:	2F60      	subc       ah, #+0x2F
     14C:	0224      	bge        +0x2 <.LASFDE2+0x2:0x14E[p]>
     14D:	90F8      	bcc        -0x70 <___libgatt_lib_db_460+0x1:0xDD[p]>
     14E:	7802      	st         ux, @(+0x78, y)
     14F:	60E0      	bra        +0x60 <.LVL1+0x5:0x1AF[p]>
     150:	9826      	st         al, @(-0x68, x)
     151:	2370      	nadd       ah, #+0x23
     152:	4774      	nadd       al, #+0x47
     153:	90F0      	bne        -0x70 <___libgatt_lib_db_460+0x7:0xE3[p]>
     154:	F101      	st         flags, @(-0xF, y)
     155:	20E0      	bra        +0x20 <.LASFDE0+0x1:0x175[p]>
     156:	19E6      	blt        +0x19, x
     157:	0190      	smult      #+0x1
     158:	F02F      	st         y, @(-0x10, y)
     159:	0090      	smult      #+0x0
     15A:	E440      	addc       ah, #-0x1C
     15B:	90F0      	bne        -0x70 <UART_RATE_57K6:0xEB[p]>
     15C:	4700      	**prefx    0x47
     15D:	89F0      	bne        +0x4689 <DATA_ROM_SIZE+0x7E6:0x47E6[p]>
     15E:	7582      	cmp        ah, @(+0x75, x)
     15F:	0883      	cmp        ah, @(+0x8, y)
     160:	54E0      	bra        +0x54 <.LASFDE6:0x1B4[p]>
     161:	F0EF      	bmi        @(-0x10, y)
     162:	7F75      	nadd       al, @0x7F <___libgatt_lib_db_3936+0x8>
     163:	75FF      	bcs        @(+0x75, y)
     164:	40C8      	and        x, #0x40
     165:	C875      	nadd       al, @0xFFC8 <___libgatt_lib_db_2743+0x147>
     166:	0100      	**prefx    0x1
     167:	0003      	st         uy, @(+0x100, y)

0x00000168 <___libgatt_lib_db_476>:
     168:	0014      	ld         al, #+0x0
     169:	9700      	**prefx    0x97
     16A:	3625      	st         al, @0x9736 <sm_store_recall>
     16B:	0014      	ld         al, #+0x0
     16C:	9700      	**prefx    0x97
     16D:	3725      	st         al, @0x9737 <sm_keys_request>
     16E:	0200      	**prefx    0x2
     16F:	B914      	ld         al, #+0x1B9
     170:	9700      	**prefx    0x97
     171:	3825      	st         al, @0x9738 <sm_div_approve_request>
     172:	0014      	ld         al, #+0x0
     173:	3E00      	**prefx    0x3E
     174:	5E25      	st         al, @0x3E5E <sm_pairing_auth_ind>
     175:	0014      	ld         al, #+0x0
     176:	3E00      	**prefx    0x3E
     177:	5D25      	st         al, @0x3E5D <sm_long_term_key_ind>
     178:	00E2      	bra        0x0, x

0x00000179 <SMFeaturesReq>:
     179:	030B      	enter      #+0x3

0x0000017A <.LCFI0>:
     17A:	0027      	st         al, @(0x0, y)
     17B:	0123      	st         ah, @(+0x1, y)
     17C:	EC9C      	bsr        -0x14 <___libgatt_lib_db_476:0x168[p]>

0x0000017D <.LVL1>:
     17D:	009B      	tst        @(0x0, y)
     17E:	04F0      	bne        +0x4 <.LEFDE0+0x2:0x182[p]>
     17F:	0014      	ld         al, #+0x0
     180:	9700      	**prefx    0x97
     181:	3625      	st         al, @0x9736 <sm_store_recall>
     182:	019B      	tst        @(+0x1, y)
     183:	04F0      	bne        +0x4 <.LASFDE2+0x3:0x187[p]>
     184:	0014      	ld         al, #+0x0
     185:	9700      	**prefx    0x97
     186:	3725      	st         al, @0x9737 <sm_keys_request>
     187:	039B      	tst        @(+0x3, y)
     188:	04F0      	bne        +0x4 <.LVL2+0x3:0x18C[p]>

0x00000189 <.LVL2>:
     189:	0014      	ld         al, #+0x0
     18A:	9700      	**prefx    0x97
     18B:	3825      	st         al, @0x9738 <sm_div_approve_request>
     18C:	049B      	tst        @(+0x4, y)
     18D:	04F0      	bne        +0x4 <.LVL3+0x3:0x191[p]>

0x0000018E <.LVL3>:
     18E:	0014      	ld         al, #+0x0
     18F:	3E00      	**prefx    0x3E
     190:	5E25      	st         al, @0x3E5E <sm_pairing_auth_ind>
     191:	059B      	tst        @(+0x5, y)
     192:	04F0      	bne        +0x4 <.LVL4+0x3:0x196[p]>

0x00000193 <.LVL4>:
     193:	0014      	ld         al, #+0x0
     194:	3E00      	**prefx    0x3E
     195:	5D25      	st         al, @0x3E5D <sm_long_term_key_ind>
     196:	030F      	leave      #+0x3

0x00000197 <SMDistributeMasterLtk>:
     197:	E199      	tst        @0xFFE1 <register al>
     198:	06F4      	beq        +0x6 <.LVL7:0x19E[p]>
     199:	9300      	**prefx    0x93
     19A:	6015      	ld         al, @0x9360 <DATA_ROMDATA_START>

0x0000019B <.LVL6>:
     19B:	0100      	**prefx    0x1
     19C:	00B4      	or         al, #+0x100
     19D:	05E0      	bra        +0x5 <.LVL8+0x2:0x1A2[p]>

0x0000019E <.LVL7>:
     19E:	9300      	**prefx    0x93
     19F:	6015      	ld         al, @0x9360 <DATA_ROMDATA_START>

0x000001A0 <.LVL8>:
     1A0:	FF00      	**prefx    0xFF
     1A1:	FFC4      	and        al, #0xFEFF
     1A2:	9300      	**prefx    0x93
     1A3:	6025      	st         al, @0x9360 <DATA_ROMDATA_START>
     1A4:	00E2      	bra        0x0, x

0x000001A5 <SMDivApproval>:
     1A5:	020B      	enter      #+0x2
     1A6:	0023      	st         ah, @(0x0, y)
     1A7:	0100      	**prefx    0x1
     1A8:	B000      	**prefx    0xB0
     1A9:	229C      	bsr        +0xB022 <___libgatt_lib_db_363:0xB1CB[p]>

0x000001AA <.LVL1>:
     1AA:	001B      	ld         x, @(0x0, y)
     1AB:	0188      	cmp        x, #+0x1
     1AC:	09F0      	bne        +0x9 <.LASFDE6+0x1:0x1B5[p]>
     1AD:	1690      	smult      #+0x16
     1AE:	E119      	ld         x, @0xFFE1 <register al>
     1AF:	9500      	**prefx    0x95
     1B0:	2E16      	ld         al, @(-0x6AD2, x)
     1B1:	0100      	**prefx    0x1
     1B2:	CE00      	**prefx    0xCE
     1B3:	639C      	bsr        +0xCE63 <___libgatt_lib_db_4098:0xD016[p]>
     1B4:	04E0      	bra        +0x4 <.LASFDE6+0x4:0x1B8[p]>
     1B5:	0100      	**prefx    0x1
     1B6:	8800      	**prefx    0x88
     1B7:	CE9C      	bsr        +0x87CE <___libgatt_lib_db_468:0x8985[p]>
     1B8:	020F      	leave      #+0x2

0x000001B9 <___libgatt_lib_db_487>:
     1B9:	030B      	enter      #+0x3

0x000001BA <.LCFI1>:
     1BA:	0027      	st         al, @(0x0, y)
     1BB:	0123      	st         ah, @(+0x1, y)
     1BC:	0B00      	**prefx    0xB
     1BD:	CA14      	ld         al, #+0xACA

0x000001BE <.LVL4>:
     1BE:	0310      	ld         ah, #+0x3

0x000001BF <.LVL5>:
     1BF:	0100      	**prefx    0x1
     1C0:	B500      	**prefx    0xB5
     1C1:	279C      	bsr        +0xB527 <___libgatt_lib_db_3960:0xB6E8[p]>
     1C2:	E119      	ld         x, @0xFFE1 <register al>
     1C3:	0013      	ld         ah, @(0x0, y)
     1C4:	0122      	st         ah, @(+0x1, x)
     1C5:	0113      	ld         ah, @(+0x1, y)
     1C6:	0222      	st         ah, @(+0x2, x)
     1C7:	0100      	**prefx    0x1
     1C8:	B400      	**prefx    0xB4
     1C9:	579C      	bsr        +0xB457 <___libgatt_lib_db_3964:0xB620[p]>
     1CA:	030F      	leave      #+0x3

0x000001CB <___libgatt_lib_db_4588>:
     1CB:	030B      	enter      #+0x3
     1CC:	0617      	ld         al, @(+0x6, y)
     1CD:	2CF4      	beq        +0x2C <.LVL5:0x1F9[p]>
     1CE:	9400      	**prefx    0x94
     1CF:	4615      	ld         al, @0x9446 <BSS_START>
     1D0:	2CF0      	bne        +0x2C <.LASFDE12:0x1FC[p]>
     1D1:	3E00      	**prefx    0x3E
     1D2:	CF15      	ld         al, @0x3DCF <DATA_RODATA_END+0x2>
     1D3:	0284      	cmp        al, #+0x2
     1D4:	052C      	bcz        +0x5 <UART_RATE_115K2:0x1D9[p]>
     1D5:	0110      	ld         ah, #+0x1

0x000001D6 <.LVL2>:
     1D6:	3E00      	**prefx    0x3E
     1D7:	CF21      	st         ah, @0x3DCF <DATA_RODATA_END+0x2>
     1D8:	04E0      	bra        +0x4 <UART_RATE_115K2+0x3:0x1DC[p]>

0x000001D9 <.LVL3>:
     1D9:	0134      	add        al, #+0x1
     1DA:	3E00      	**prefx    0x3E
     1DB:	CF25      	st         al, @0x3DCF <DATA_RODATA_END+0x2>
     1DC:	3E00      	**prefx    0x3E
     1DD:	CF15      	ld         al, @0x3DCF <DATA_RODATA_END+0x2>
     1DE:	0284      	cmp        al, #+0x2
     1DF:	1D2C      	bcz        +0x1D <.LASFDE12:0x1FC[p]>
     1E0:	0114      	ld         al, #+0x1
     1E1:	9400      	**prefx    0x94
     1E2:	4625      	st         al, @0x9446 <BSS_START>
     1E3:	3E00      	**prefx    0x3E
     1E4:	CE19      	ld         x, @0x3DCE <DATA_RODATA_END+0x1>
     1E5:	3E00      	**prefx    0x3E
     1E6:	CE15      	ld         al, @0x3DCE <DATA_RODATA_END+0x1>
     1E7:	E100      	**prefx    0xE1
     1E8:	E138      	add        x, #-0x1F1F
     1E9:	0110      	ld         ah, #+0x1

0x000001EA <.LVL4>:
     1EA:	0023      	st         ah, @(0x0, y)
     1EB:	8700      	**prefx    0x87
     1EC:	6934      	add        al, #-0x7897
     1ED:	0127      	st         al, @(+0x1, y)
     1EE:	2D10      	ld         ah, #+0x2D
     1EF:	C700      	**prefx    0xC7
     1F0:	C014      	ld         al, #-0x3940
     1F1:	FF2B      	st         x, @(-0x1, y)
     1F2:	FF9F      	bsr        @(-0x1, y)
     1F3:	E199      	tst        @0xFFE1 <register al>
     1F4:	08F0      	bne        +0x8 <.LASFDE12:0x1FC[p]>
     1F5:	0010      	ld         ah, #+0x0
     1F6:	9400      	**prefx    0x94
     1F7:	4621      	st         ah, @0x9446 <BSS_START>
     1F8:	04E0      	bra        +0x4 <.LASFDE12:0x1FC[p]>

0x000001F9 <.LVL5>:
     1F9:	0014      	ld         al, #+0x0
     1FA:	3E00      	**prefx    0x3E
     1FB:	CF25      	st         al, @0x3DCF <DATA_RODATA_END+0x2>
     1FC:	8800      	**prefx    0x88
     1FD:	5010      	ld         ah, #-0x77B0

0x000001FE <.LVL6>:
     1FE:	0223      	st         ah, @(+0x2, y)
     1FF:	030F      	leave      #+0x3

0x00000200 <___libgatt_lib_db_4591>:
     200:	010B      	enter      #+0x1

0x00000201 <.LCFI1>:
     201:	0F17      	ld         al, @(+0xF, y)

0x00000202 <.LVL8>:
     202:	FB25      	st         al, @0xFFFB <(scratchpad)>
     203:	101B      	ld         x, @(+0x10, y)
     204:	F829      	st         x, @0xFFF8 <(scratchpad)>

0x00000205 <.LVL9>:
     205:	1417      	ld         al, @(+0x14, y)
     206:	FA25      	st         al, @0xFFFA <(scratchpad)>

0x00000207 <.LVL10>:
     207:	E315      	ld         al, @0xFFE3 <register uxl>
     208:	0100      	**prefx    0x1
     209:	80C4      	and        al, #0x80
     20A:	0BF4      	beq        +0xB <.LVL13:0x215[p]>

0x0000020B <.LVL11>:
     20B:	1017      	ld         al, @(+0x10, y)
     20C:	FF00      	**prefx    0xFF
     20D:	7FC4      	and        al, #0xFF7F
     20E:	1027      	st         al, @(+0x10, y)
     20F:	FA19      	ld         x, @0xFFFA <(scratchpad)>

0x00000210 <.LVL12>:
     210:	0016      	ld         al, @(0x0, x)
     211:	FF00      	**prefx    0xFF
     212:	7FC4      	and        al, #0xFF7F
     213:	0026      	st         al, @(0x0, x)
     214:	29E0      	bra        +0x29 <.LVL17:0x23D[p]>

0x00000215 <.LVL13>:
     215:	0188      	cmp        x, #+0x1

0x00000216 <.LVL14>:
     216:	03F4      	beq        +0x3 <.LVL14+0x3:0x219[p]>
     217:	0B88      	cmp        x, #+0xB
     218:	05F0      	bne        +0x5 <.LVL14+0x7:0x21D[p]>
     219:	3E00      	**prefx    0x3E
     21A:	CD99      	tst        @0x3DCD <DATA_RODATA_END>
     21B:	02F4      	beq        +0x2 <.LVL14+0x7:0x21D[p]>
     21C:	140F      	leave      #+0x14
     21D:	FB19      	ld         x, @0xFFFB <(scratchpad)>
     21E:	061A      	ld         x, @(+0x6, x)
     21F:	F815      	ld         al, @0xFFF8 <(scratchpad)>
     220:	FF34      	add        al, #-0x1
     221:	F925      	st         al, @0xFFF9 <(scratchpad)>
     222:	0114      	ld         al, #+0x1
     223:	F9A1      	asl        @0xFFF9 <(scratchpad)>

0x00000224 <.LVL15>:
     224:	E3C5      	and        al, @0xFFE3 <register uxl>
     225:	18F4      	beq        +0x18 <.LVL17:0x23D[p]>
     226:	E315      	ld         al, @0xFFE3 <register uxl>
     227:	F819      	ld         x, @0xFFF8 <(scratchpad)>
     228:	A100      	**prefx    0xA1
     229:	01C6      	and        al, @(-0x5EFF, x)
     22A:	13F0      	bne        +0x13 <.LVL17:0x23D[p]>
     22B:	9400      	**prefx    0x94
     22C:	4615      	ld         al, @0x9446 <BSS_START>
     22D:	10F0      	bne        +0x10 <.LVL17:0x23D[p]>
     22E:	0188      	cmp        x, #+0x1
     22F:	03F4      	beq        +0x3 <.LSCIE0+0x6:0x232[p]>
     230:	0B88      	cmp        x, #+0xB
     231:	0CF0      	bne        +0xC <.LVL17:0x23D[p]>
     232:	0118      	ld         x, #+0x1
     233:	3E00      	**prefx    0x3E
     234:	CD29      	st         x, @0x3DCD <DATA_RODATA_END>
     235:	3E00      	**prefx    0x3E
     236:	5E19      	ld         x, @0x3E5E <sm_pairing_auth_ind>
     237:	06F4      	beq        +0x6 <.LVL17:0x23D[p]>
     238:	FB15      	ld         al, @0xFFFB <(scratchpad)>
     239:	FA11      	ld         ah, @0xFFFA <(scratchpad)>
     23A:	FF2B      	st         x, @(-0x1, y)
     23B:	FF9F      	bsr        @(-0x1, y)

0x0000023C <.LVL16>:
     23C:	140F      	leave      #+0x14

0x0000023D <.LVL17>:
     23D:	010F      	leave      #+0x1

0x0000023E <.LFB6>:
     23E:	020B      	enter      #+0x2

0x0000023F <.LCFI2>:
     23F:	3E00      	**prefx    0x3E
     240:	CE11      	ld         ah, @0x3DCE <DATA_RODATA_END+0x1>
     241:	8500      	**prefx    0x85
     242:	0130      	add        ah, #-0x7AFF
     243:	FF23      	st         ah, @(-0x1, y)
     244:	FF9F      	bsr        @(-0x1, y)

0x00000245 <.LVL19>:
     245:	0027      	st         al, @(0x0, y)
     246:	14F4      	beq        +0x14 <.LASFDE2+0xE:0x25A[p]>
     247:	0014      	ld         al, #+0x0
     248:	001B      	ld         x, @(0x0, y)
     249:	2A26      	st         al, @(+0x2A, x)
     24A:	3E00      	**prefx    0x3E
     24B:	CE11      	ld         ah, @0x3DCE <DATA_RODATA_END+0x1>
     24C:	8800      	**prefx    0x88
     24D:	0630      	add        ah, #-0x77FA
     24E:	E315      	ld         al, @0xFFE3 <register uxl>
     24F:	FF23      	st         ah, @(-0x1, y)
     250:	FF9F      	bsr        @(-0x1, y)
     251:	3E00      	**prefx    0x3E
     252:	CE19      	ld         x, @0x3DCE <DATA_RODATA_END+0x1>
     253:	8800      	**prefx    0x88
     254:	1138      	add        x, #-0x77EF
     255:	0017      	ld         al, @(0x0, y)
     256:	0C00      	**prefx    0xC
     257:	8010      	ld         ah, #+0xB80
     258:	FF2B      	st         x, @(-0x1, y)
     259:	FF9F      	bsr        @(-0x1, y)
     25A:	020F      	leave      #+0x2

0x0000025B <___libgatt_lib_db_4589>:
     25B:	010B      	enter      #+0x1

0x0000025C <.LCFI3>:
     25C:	9300      	**prefx    0x93
     25D:	6615      	ld         al, @0x9366 <___libgatt_lib_db_18+0x1>

0x0000025E <.LVL22>:
     25E:	0284      	cmp        al, #+0x2
     25F:	05F4      	beq        +0x5 <.LASFDE4:0x264[p]>
     260:	031B      	ld         x, @(+0x3, y)
     261:	0014      	ld         al, #+0x0
     262:	0526      	st         al, @(+0x5, x)
     263:	0626      	st         al, @(+0x6, x)
     264:	010F      	leave      #+0x1

0x00000265 <___libgatt_lib_db_4593>:
     265:	010B      	enter      #+0x1

0x00000266 <.LCFI4>:
     266:	0A1B      	ld         x, @(+0xA, y)
     267:	3E00      	**prefx    0x3E
     268:	CE11      	ld         ah, @0x3DCE <DATA_RODATA_END+0x1>

0x00000269 <.LVL24>:
     269:	9700      	**prefx    0x97
     26A:	8530      	add        ah, #-0x697B
     26B:	0516      	ld         al, @(+0x5, x)

0x0000026C <.LVL25>:
     26C:	FF23      	st         ah, @(-0x1, y)
     26D:	FF9F      	bsr        @(-0x1, y)
     26E:	0284      	cmp        al, #+0x2
     26F:	04F0      	bne        +0x4 <.LVL25+0x7:0x273[p]>
     270:	0114      	ld         al, #+0x1
     271:	3E00      	**prefx    0x3E
     272:	CD25      	st         al, @0x3DCD <DATA_RODATA_END>
     273:	010F      	leave      #+0x1

0x00000274 <___libgatt_lib_db_4587>:
     274:	020B      	enter      #+0x2

0x00000275 <.LCFI5>:
     275:	0014      	ld         al, #+0x0

0x00000276 <.LVL27>:
     276:	3E00      	**prefx    0x3E
     277:	CD25      	st         al, @0x3DCD <DATA_RODATA_END>
     278:	0617      	ld         al, @(+0x6, y)
     279:	8C00      	**prefx    0x8C
     27A:	DC84      	cmp        al, #-0x7424
     27B:	1AF0      	bne        +0x1A <.LBE11:0x295[p]>
     27C:	0517      	ld         al, @(+0x5, y)

0x0000027D <.LVL28>:
     27D:	0684      	cmp        al, #+0x6
     27E:	17F0      	bne        +0x17 <.LBE11:0x295[p]>
     27F:	041B      	ld         x, @(+0x4, y)

0x00000280 <.LVL29>:
     280:	051A      	ld         x, @(+0x5, x)

0x00000281 <.LVL30>:
     281:	002B      	st         x, @(0x0, y)

0x00000282 <.LBB10>:
     282:	3E00      	**prefx    0x3E
     283:	CE19      	ld         x, @0x3DCE <DATA_RODATA_END+0x1>

0x00000284 <.LBE10>:
     284:	B700      	**prefx    0xB7
     285:	E838      	add        x, #-0x4918
     286:	0B00      	**prefx    0xB
     287:	D014      	ld         al, #+0xAD0

0x00000288 <.LVL31>:
     288:	0210      	ld         ah, #+0x2

0x00000289 <.LVL32>:
     289:	FF2B      	st         x, @(-0x1, y)
     28A:	FF9F      	bsr        @(-0x1, y)
     28B:	E119      	ld         x, @0xFFE1 <register al>

0x0000028C <.LBB11>:
     28C:	0017      	ld         al, @(0x0, y)
     28D:	0126      	st         al, @(+0x1, x)
     28E:	3E00      	**prefx    0x3E
     28F:	CE11      	ld         ah, @0x3DCE <DATA_RODATA_END+0x1>
     290:	B600      	**prefx    0xB6
     291:	2030      	add        ah, #-0x49E0
     292:	E315      	ld         al, @0xFFE3 <register uxl>
     293:	FF23      	st         ah, @(-0x1, y)
     294:	FF9F      	bsr        @(-0x1, y)

0x00000295 <.LBE11>:
     295:	020F      	leave      #+0x2

0x00000296 <___libgatt_lib_db_4602>:
     296:	0F0B      	enter      #+0xF

0x00000297 <.LCFI6>:
     297:	0B27      	st         al, @(+0xB, y)
     298:	0C23      	st         ah, @(+0xC, y)
     299:	1690      	smult      #+0x16

0x0000029A <.LVL35>:
     29A:	9500      	**prefx    0x95
     29B:	2E34      	add        al, #-0x6AD2
     29C:	0D27      	st         al, @(+0xD, y)
     29D:	E119      	ld         x, @0xFFE1 <register al>
     29E:	001A      	ld         x, @(0x0, x)
     29F:	092B      	st         x, @(+0x9, y)
     2A0:	0810      	ld         ah, #+0x8
     2A1:	0023      	st         ah, @(0x0, y)
     2A2:	E415      	ld         al, @0xFFE4 <register uy>
     2A3:	0134      	add        al, #+0x1
     2A4:	0F13      	ld         ah, @(+0xF, y)
     2A5:	0100      	**prefx    0x1
     2A6:	8A00      	**prefx    0x8A
     2A7:	0F9C      	bsr        +0x8A0F <MemCopyPack:0x8CB6[p]>
     2A8:	3E00      	**prefx    0x3E
     2A9:	CE19      	ld         x, @0x3DCE <DATA_RODATA_END+0x1>
     2AA:	8600      	**prefx    0x86
     2AB:	C838      	add        x, #-0x7A38
     2AC:	E415      	ld         al, @0xFFE4 <register uy>
     2AD:	0134      	add        al, #+0x1
     2AE:	0C13      	ld         ah, @(+0xC, y)
     2AF:	FF2B      	st         x, @(-0x1, y)
     2B0:	FF9F      	bsr        @(-0x1, y)
     2B1:	0A27      	st         al, @(+0xA, y)
     2B2:	0FC4      	and        al, #0xF
     2B3:	0684      	cmp        al, #+0x6
     2B4:	0BFC      	bcs        +0xB <.LVL39+0x1:0x2BF[p]>

0x000002B5 <.LVL38>:
     2B5:	3E00      	**prefx    0x3E
     2B6:	CE11      	ld         ah, @0x3DCE <DATA_RODATA_END+0x1>
     2B7:	8600      	**prefx    0x86
     2B8:	8030      	add        ah, #-0x7A80
     2B9:	0A17      	ld         al, @(+0xA, y)
     2BA:	FF23      	st         ah, @(-0x1, y)
     2BB:	FF9F      	bsr        @(-0x1, y)
     2BC:	9300      	**prefx    0x93
     2BD:	6785      	cmp        al, @0x9367 <___libgatt_lib_db_18+0x2>

0x000002BE <.LVL39>:
     2BE:	09F8      	bcc        +0x9 <.LVL41:0x2C7[p]>
     2BF:	3E00      	**prefx    0x3E
     2C0:	CE11      	ld         ah, @0x3DCE <DATA_RODATA_END+0x1>
     2C1:	D000      	**prefx    0xD0
     2C2:	1630      	add        ah, #-0x2FEA
     2C3:	0917      	ld         al, @(+0x9, y)

0x000002C4 <.LVL40>:
     2C4:	FF23      	st         ah, @(-0x1, y)
     2C5:	FF9F      	bsr        @(-0x1, y)
     2C6:	23E0      	bra        +0x23 <.LVL46:0x2E9[p]>

0x000002C7 <.LVL41>:
     2C7:	0A13      	ld         ah, @(+0xA, y)
     2C8:	0D1B      	ld         x, @(+0xD, y)
     2C9:	1522      	st         ah, @(+0x15, x)
     2CA:	109B      	tst        @(+0x10, y)
     2CB:	03F4      	beq        +0x3 <.LVL42+0x2:0x2CE[p]>

0x000002CC <.LVL42>:
     2CC:	101B      	ld         x, @(+0x10, y)
     2CD:	2B26      	st         al, @(+0x2B, x)
     2CE:	3E00      	**prefx    0x3E
     2CF:	CE19      	ld         x, @0x3DCE <DATA_RODATA_END+0x1>
     2D0:	9700      	**prefx    0x97
     2D1:	389A      	tst        @(-0x68C8, x)
     2D2:	10F4      	beq        +0x10 <.LVL44:0x2E2[p]>
     2D3:	3E00      	**prefx    0x3E
     2D4:	CE11      	ld         ah, @0x3DCE <DATA_RODATA_END+0x1>
     2D5:	F821      	st         ah, @0xFFF8 <(scratchpad)>
     2D6:	0B17      	ld         al, @(+0xB, y)

0x000002D7 <.LVL43>:
     2D7:	1790      	smult      #+0x17
     2D8:	E119      	ld         x, @0xFFE1 <register al>
     2D9:	9700      	**prefx    0x97
     2DA:	D716      	ld         al, @(-0x6929, x)
     2DB:	F819      	ld         x, @0xFFF8 <(scratchpad)>
     2DC:	9700      	**prefx    0x97
     2DD:	381A      	ld         x, @(-0x68C8, x)
     2DE:	0A13      	ld         ah, @(+0xA, y)
     2DF:	FF2B      	st         x, @(-0x1, y)
     2E0:	FF9F      	bsr        @(-0x1, y)
     2E1:	08E0      	bra        +0x8 <.LVL46:0x2E9[p]>

0x000002E2 <.LVL44>:
     2E2:	3E00      	**prefx    0x3E
     2E3:	CE11      	ld         ah, @0x3DCE <DATA_RODATA_END+0x1>
     2E4:	8A00      	**prefx    0x8A
     2E5:	8530      	add        ah, #-0x767B
     2E6:	0B17      	ld         al, @(+0xB, y)

0x000002E7 <.LVL45>:
     2E7:	FF23      	st         ah, @(-0x1, y)
     2E8:	FF9F      	bsr        @(-0x1, y)

0x000002E9 <.LVL46>:
     2E9:	0F0F      	leave      #+0xF

0x000002EA <___libgatt_lib_db_4590>:
     2EA:	050B      	enter      #+0x5

0x000002EB <.LCFI7>:
     2EB:	0327      	st         al, @(+0x3, y)
     2EC:	3E00      	**prefx    0x3E
     2ED:	CE11      	ld         ah, @0x3DCE <DATA_RODATA_END+0x1>
     2EE:	8500      	**prefx    0x85
     2EF:	4430      	add        ah, #-0x7ABC
     2F0:	E119      	ld         x, @0xFFE1 <register al>
     2F1:	0016      	ld         al, @(0x0, x)

0x000002F2 <.LVL48>:
     2F2:	FF23      	st         ah, @(-0x1, y)
     2F3:	FF9F      	bsr        @(-0x1, y)
     2F4:	0227      	st         al, @(+0x2, y)
     2F5:	9300      	**prefx    0x93
     2F6:	6799      	tst        @0x9367 <___libgatt_lib_db_18+0x2>
     2F7:	24F4      	beq        +0x24 <.LVL51+0x1:0x31B[p]>
     2F8:	029B      	tst        @(+0x2, y)
     2F9:	18F4      	beq        +0x18 <.LASFDE18+0x5:0x311[p]>
     2FA:	021B      	ld         x, @(+0x2, y)
     2FB:	0616      	ld         al, @(+0x6, x)
     2FC:	1C00      	**prefx    0x1C
     2FD:	0FC4      	and        al, #0x1C0F
     2FE:	1000      	**prefx    0x10
     2FF:	0084      	cmp        al, #+0x1000
     300:	11F0      	bne        +0x11 <.LASFDE18+0x5:0x311[p]>
     301:	3E00      	**prefx    0x3E
     302:	CE15      	ld         al, @0x3DCE <DATA_RODATA_END+0x1>
     303:	E119      	ld         x, @0xFFE1 <register al>
     304:	D000      	**prefx    0xD0
     305:	4938      	add        x, #-0x2FB7
     306:	F829      	st         x, @0xFFF8 <(scratchpad)>
     307:	0217      	ld         al, @(+0x2, y)
     308:	0934      	add        al, #+0x9
     309:	0227      	st         al, @(+0x2, y)
     30A:	031B      	ld         x, @(+0x3, y)
     30B:	0016      	ld         al, @(0x0, x)
     30C:	0213      	ld         ah, @(+0x2, y)
     30D:	F819      	ld         x, @0xFFF8 <(scratchpad)>
     30E:	FF2B      	st         x, @(-0x1, y)
     30F:	FF9F      	bsr        @(-0x1, y)
     310:	28E0      	bra        +0x28 <.LVL56:0x338[p]>
     311:	3E00      	**prefx    0x3E
     312:	CE11      	ld         ah, @0x3DCE <DATA_RODATA_END+0x1>
     313:	9200      	**prefx    0x92
     314:	3730      	add        ah, #-0x6DC9
     315:	031B      	ld         x, @(+0x3, y)
     316:	0016      	ld         al, @(0x0, x)
     317:	FF23      	st         ah, @(-0x1, y)
     318:	FF9F      	bsr        @(-0x1, y)
     319:	FF84      	cmp        al, #-0x1

0x0000031A <.LVL51>:
     31A:	0AF0      	bne        +0xA <.LVL53:0x324[p]>
     31B:	3E00      	**prefx    0x3E
     31C:	CE11      	ld         ah, @0x3DCE <DATA_RODATA_END+0x1>
     31D:	D000      	**prefx    0xD0
     31E:	1630      	add        ah, #-0x2FEA
     31F:	031B      	ld         x, @(+0x3, y)
     320:	0016      	ld         al, @(0x0, x)

0x00000321 <.LVL52>:
     321:	FF23      	st         ah, @(-0x1, y)
     322:	FF9F      	bsr        @(-0x1, y)
     323:	15E0      	bra        +0x15 <.LVL56:0x338[p]>

0x00000324 <.LVL53>:
     324:	3E00      	**prefx    0x3E
     325:	5D19      	ld         x, @0x3E5D <sm_long_term_key_ind>
     326:	F829      	st         x, @0xFFF8 <(scratchpad)>
     327:	031B      	ld         x, @(+0x3, y)
     328:	0912      	ld         ah, @(+0x9, x)
     329:	F899      	tst        @0xFFF8 <(scratchpad)>
     32A:	07F4      	beq        +0x7 <.LVL55:0x331[p]>
     32B:	0138      	add        x, #+0x1
     32C:	002B      	st         x, @(0x0, y)
     32D:	F819      	ld         x, @0xFFF8 <(scratchpad)>
     32E:	FF2B      	st         x, @(-0x1, y)
     32F:	FF9F      	bsr        @(-0x1, y)

0x00000330 <.LVL54>:
     330:	08E0      	bra        +0x8 <.LVL56:0x338[p]>

0x00000331 <.LVL55>:
     331:	031B      	ld         x, @(+0x3, y)
     332:	0138      	add        x, #+0x1
     333:	002B      	st         x, @(0x0, y)
     334:	021B      	ld         x, @(+0x2, y)
     335:	012B      	st         x, @(+0x1, y)
     336:	FF00      	**prefx    0xFF
     337:	5F9C      	bsr        -0xA1 <___libgatt_lib_db_4602:0x296[p]>

0x00000338 <.LVL56>:
     338:	050F      	leave      #+0x5

0x00000339 <___libgatt_lib_db_4592>:
     339:	080B      	enter      #+0x8

0x0000033A <.LCFI8>:
     33A:	0A17      	ld         al, @(+0xA, y)

0x0000033B <.LVL58>:
     33B:	0627      	st         al, @(+0x6, y)
     33C:	0B1B      	ld         x, @(+0xB, y)
     33D:	052B      	st         x, @(+0x5, y)
     33E:	0016      	ld         al, @(0x0, x)
     33F:	0984      	cmp        al, #+0x9
     340:	2AF0      	bne        +0x2A <.LVL64:0x36A[p]>
     341:	061B      	ld         x, @(+0x6, y)
     342:	0516      	ld         al, @(+0x5, x)
     343:	0010      	ld         ah, #+0x0

0x00000344 <.LVL61>:
     344:	0009      	**unsigned
     345:	0394      	udiv       #0x3
     346:	1690      	smult      #+0x16
     347:	9500      	**prefx    0x95
     348:	2F34      	add        al, #-0x6AD1
     349:	F825      	st         al, @0xFFF8 <(scratchpad)>

0x0000034A <.LVL62>:
     34A:	E119      	ld         x, @0xFFE1 <register al>
     34B:	0016      	ld         al, @(0x0, x)
     34C:	0184      	cmp        al, #+0x1
     34D:	1DF0      	bne        +0x1D <.LVL64:0x36A[p]>
     34E:	0416      	ld         al, @(+0x4, x)
     34F:	C000      	**prefx    0xC0
     350:	00C4      	and        al, #0xC000
     351:	C000      	**prefx    0xC0
     352:	0084      	cmp        al, #-0x4000
     353:	17F0      	bne        +0x17 <.LVL64:0x36A[p]>
     354:	0114      	ld         al, #+0x1
     355:	051B      	ld         x, @(+0x5, y)
     356:	0126      	st         al, @(+0x1, x)
     357:	3E00      	**prefx    0x3E
     358:	CE19      	ld         x, @0x3DCE <DATA_RODATA_END+0x1>
     359:	B900      	**prefx    0xB9
     35A:	1738      	add        x, #-0x46E9
     35B:	F815      	ld         al, @0xFFF8 <(scratchpad)>
     35C:	0134      	add        al, #+0x1
     35D:	E411      	ld         ah, @0xFFE4 <register uy>
     35E:	0230      	add        ah, #+0x2
     35F:	FF2B      	st         x, @(-0x1, y)
     360:	FF9F      	bsr        @(-0x1, y)

0x00000361 <.LVL63>:
     361:	0517      	ld         al, @(+0x5, y)
     362:	0234      	add        al, #+0x2
     363:	0618      	ld         x, #+0x6
     364:	002B      	st         x, @(0x0, y)
     365:	E411      	ld         ah, @0xFFE4 <register uy>
     366:	0230      	add        ah, #+0x2
     367:	0100      	**prefx    0x1
     368:	8900      	**prefx    0x89
     369:	779C      	bsr        +0x8977 <MemCopyUnPack:0x8CE0[p]>

0x0000036A <.LVL64>:
     36A:	3E00      	**prefx    0x3E
     36B:	CE11      	ld         ah, @0x3DCE <DATA_RODATA_END+0x1>

0x0000036C <.LVL65>:
     36C:	E000      	**prefx    0xE0
     36D:	1930      	add        ah, #-0x1FE7
     36E:	061B      	ld         x, @(+0x6, y)
     36F:	2A16      	ld         al, @(+0x2A, x)
     370:	FF23      	st         ah, @(-0x1, y)
     371:	FF9F      	bsr        @(-0x1, y)

0x00000372 <.LVL66>:
     372:	3E00      	**prefx    0x3E
     373:	CE19      	ld         x, @0x3DCE <DATA_RODATA_END+0x1>
     374:	E100      	**prefx    0xE1
     375:	E138      	add        x, #-0x1F1F
     376:	0114      	ld         al, #+0x1
     377:	0027      	st         al, @(0x0, y)
     378:	0200      	**prefx    0x2
     379:	3E14      	ld         al, #+0x23E
     37A:	0127      	st         al, @(+0x1, y)
     37B:	0200      	**prefx    0x2
     37C:	C910      	ld         ah, #+0x1C9
     37D:	C400      	**prefx    0xC4
     37E:	8014      	ld         al, #-0x3C80
     37F:	FF2B      	st         x, @(-0x1, y)
     380:	FF9F      	bsr        @(-0x1, y)
     381:	061B      	ld         x, @(+0x6, y)
     382:	2A26      	st         al, @(+0x2A, x)
     383:	3E00      	**prefx    0x3E
     384:	CE15      	ld         al, @0x3DCE <DATA_RODATA_END+0x1>
     385:	F825      	st         al, @0xFFF8 <(scratchpad)>
     386:	051B      	ld         x, @(+0x5, y)
     387:	0016      	ld         al, @(0x0, x)
     388:	E119      	ld         x, @0xFFE1 <register al>
     389:	A100      	**prefx    0xA1
     38A:	D412      	ld         ah, @(-0x5F2C, x)
     38B:	F815      	ld         al, @0xFFF8 <(scratchpad)>
     38C:	9600      	**prefx    0x96
     38D:	F234      	add        al, #-0x6A0E
     38E:	F825      	st         al, @0xFFF8 <(scratchpad)>
     38F:	061B      	ld         x, @(+0x6, y)
     390:	0516      	ld         al, @(+0x5, x)
     391:	051B      	ld         x, @(+0x5, y)
     392:	002B      	st         x, @(0x0, y)
     393:	F819      	ld         x, @0xFFF8 <(scratchpad)>
     394:	FF2B      	st         x, @(-0x1, y)
     395:	FF9F      	bsr        @(-0x1, y)
     396:	8400      	**prefx    0x84
     397:	CF14      	ld         al, #-0x7C31
     398:	0727      	st         al, @(+0x7, y)
     399:	080F      	leave      #+0x8

0x0000039A <___libgatt_lib_db_4604>:
     39A:	010B      	enter      #+0x1
     39B:	E199      	tst        @0xFFE1 <register al>
     39C:	03F4      	beq        +0x3 <.LASFDE10+0x3:0x39F[p]>
     39D:	0484      	cmp        al, #+0x4
     39E:	04F0      	bne        +0x4 <.LASFDE10+0x6:0x3A2[p]>
     39F:	0018      	ld         x, #+0x0
     3A0:	3E00      	**prefx    0x3E
     3A1:	CD29      	st         x, @0x3DCD <DATA_RODATA_END>
     3A2:	3E00      	**prefx    0x3E
     3A3:	D019      	ld         x, @0x3DD0 <DATA_RODATA_END+0x3>
     3A4:	8500      	**prefx    0x85
     3A5:	9C38      	add        x, #-0x7B64
     3A6:	FF2B      	st         x, @(-0x1, y)
     3A7:	FF9F      	bsr        @(-0x1, y)

0x000003A8 <.LVL1>:
     3A8:	010F      	leave      #+0x1

0x000003A9 <GattGetDatabase>:
    /* 0022: . */
    0xc401, 0x0000,
};

uint16 *GattGetDatabase(uint16 *len)
{
     3A9:	010B      	enter      #+0x1
     3AA:	E119      	ld         x, @0xFFE1 <register al>
    *len = sizeof(gattDatabase);
     3AB:	0100      	**prefx    0x1
     3AC:	AF14      	ld         al, #+0xAF
     3AD:	0026      	st         al, @(0x0, x)
    return gattDatabase;
}
     3AE:	3E00      	**prefx    0x3E
     3AF:	6314      	ld         al, #+0x3E63
     3B0:	010F      	leave      #+0x1

0x000003B1 <BatteryInitChipReset>:
{
    /* Initialise battery level to 0 percent so that the battery level 
     * notification (if configured) is sent when the value is read for 
     * the first time after power cycle.
     */
    g_batt_data.level = 0;
     3B1:	0014      	ld         al, #+0x0
     3B2:	3E00      	**prefx    0x3E
     3B3:	D125      	st         al, @0x3DD1 <g_batt_data>
}
     3B4:	00E2      	bra        0x0, x

0x000003B5 <BatteryCheckHandleRange>:
 *
 *  RETURNS
 *      TRUE if handle belongs to the Battery Service, FALSE otherwise
 *----------------------------------------------------------------------------*/
extern bool BatteryCheckHandleRange(uint16 handle)
{
     3B5:	0010      	ld         ah, #+0x0
     3B6:	E634      	add        al, #-0x1A
     3B7:	0484      	cmp        al, #+0x4
     3B8:	02F8      	bcc        +0x2 <BatteryCheckHandleRange+0x5:0x3BA[p]>
     3B9:	0110      	ld         ah, #+0x1
    return ((handle >= HANDLE_BATTERY_SERVICE) &&
            (handle <= HANDLE_BATTERY_SERVICE_END))
            ? TRUE : FALSE;
}
     3BA:	E015      	ld         al, @0xFFE0 <register ah>
     3BB:	00E2      	bra        0x0, x

0x000003BC <BatteryDataInit>:
 *
 *  RETURNS
 *      Nothing
 *----------------------------------------------------------------------------*/
extern void BatteryDataInit(void)
{
     3BC:	010B      	enter      #+0x1
    if(!IsDeviceBonded())
     3BD:	0400      	**prefx    0x4
     3BE:	669C      	bsr        +0x466 <IsDeviceBonded:0x824[p]>
     3BF:	E199      	tst        @0xFFE1 <register al>
     3C0:	03F0      	bne        +0x3 <BatteryDataInit+0x7:0x3C3[p]>
    {
        /* Initialise battery level client configuration characterisitic
         * descriptor value only if device is not bonded
         */
        g_batt_data.level_client_config = gatt_client_config_none;
     3C1:	3E00      	**prefx    0x3E
     3C2:	D225      	st         al, @0x3DD2 <g_batt_data+0x1>
    }

}
     3C3:	010F      	leave      #+0x1

0x000003C4 <BatteryBondingNotify>:
 *
 *  RETURNS
 *      Nothing
 *----------------------------------------------------------------------------*/
extern void BatteryBondingNotify(void)
{
     3C4:	020B      	enter      #+0x2

    /* Write data to NVM if bond is established */
    if(IsDeviceBonded())
     3C5:	0400      	**prefx    0x4
     3C6:	5E9C      	bsr        +0x45E <IsDeviceBonded:0x824[p]>
     3C7:	E199      	tst        @0xFFE1 <register al>
     3C8:	09F4      	beq        +0x9 <.LASFDE14+0x5:0x3D1[p]>
    {
        /* Write to NVM the client configuration value of battery level 
         * that was configured prior to bonding 
         */
        Nvm_Write((uint16*)&g_batt_data.level_client_config, 
     3C9:	3E00      	**prefx    0x3E
     3CA:	D315      	ld         al, @0x3DD3 <g_batt_data+0x2>
     3CB:	0027      	st         al, @(0x0, y)
     3CC:	3E00      	**prefx    0x3E
     3CD:	D214      	ld         al, #+0x3DD2
     3CE:	0110      	ld         ah, #+0x1
     3CF:	0400      	**prefx    0x4
     3D0:	329C      	bsr        +0x432 <Nvm_Write:0x802[p]>
                  sizeof(g_batt_data.level_client_config), 
                  g_batt_data.nvm_offset + 
                  BATTERY_NVM_LEVEL_CLIENT_CONFIG_OFFSET);
    }

}
     3D1:	020F      	leave      #+0x2

0x000003D2 <BatteryReadDataFromNVM>:
 *
 *  RETURNS
 *      Nothing
 *----------------------------------------------------------------------------*/
extern void BatteryReadDataFromNVM(uint16 *p_offset)
{
     3D2:	030B      	enter      #+0x3
     3D3:	0127      	st         al, @(+0x1, y)

    g_batt_data.nvm_offset = *p_offset;
     3D4:	E119      	ld         x, @0xFFE1 <register al>
     3D5:	001A      	ld         x, @(0x0, x)
     3D6:	3E00      	**prefx    0x3E
     3D7:	D329      	st         x, @0x3DD3 <g_batt_data+0x2>

    /* Read NVM only if devices are bonded */
    if(IsDeviceBonded())
     3D8:	0400      	**prefx    0x4
     3D9:	4B9C      	bsr        +0x44B <IsDeviceBonded:0x824[p]>
     3DA:	E199      	tst        @0xFFE1 <register al>
     3DB:	09F4      	beq        +0x9 <.LSCIE0:0x3E4[p]>
    {
        /* Read battery level client configuration descriptor */
        Nvm_Read((uint16*)&g_batt_data.level_client_config,
     3DC:	011B      	ld         x, @(+0x1, y)
     3DD:	001A      	ld         x, @(0x0, x)
     3DE:	002B      	st         x, @(0x0, y)
     3DF:	3E00      	**prefx    0x3E
     3E0:	D214      	ld         al, #+0x3DD2
     3E1:	0110      	ld         ah, #+0x1
     3E2:	0400      	**prefx    0x4
     3E3:	2D9C      	bsr        +0x42D <Nvm_Read:0x810[p]>
    }

    /* Increment the offset by the number of words of NVM memory required 
     * by the Battery Service 
     */
    *p_offset += BATTERY_SERVICE_NVM_MEMORY_WORDS;
     3E4:	011B      	ld         x, @(+0x1, y)
     3E5:	0016      	ld         al, @(0x0, x)
     3E6:	0134      	add        al, #+0x1
     3E7:	0026      	st         al, @(0x0, x)

}
     3E8:	030F      	leave      #+0x3

0x000003E9 <readBatteryLevel>:
 *
 *  RETURNS
 *      Battery level in percent
 *----------------------------------------------------------------------------*/
static uint8 readBatteryLevel(void)
{
     3E9:	030B      	enter      #+0x3
    uint32 bat_voltage;                 /* Battery voltage in mV */
    uint32 bat_level;                   /* Battery level in percent */

    /* Read battery voltage and level it with minimum voltage */
    bat_voltage = BatteryReadVoltage();
     3EA:	0100      	**prefx    0x1
     3EB:	F400      	**prefx    0xF4
     3EC:	2B9C      	bsr        +0xF42B <BatteryReadVoltage:0xF817[p]>

    /* Level the read battery voltage to the minimum value */
    if(bat_voltage < BATTERY_FLAT_BATTERY_VOLTAGE)
     3ED:	0D00      	**prefx    0xD
     3EE:	8084      	cmp        al, #+0xC80
     3EF:	03F8      	bcc        +0x3 <.LECIE0+0x2:0x3F2[p]>
     3F0:	0D00      	**prefx    0xD
     3F1:	8014      	ld         al, #+0xC80
    }

    bat_voltage -= BATTERY_FLAT_BATTERY_VOLTAGE;

    /* Get battery level in percent */
    bat_level = (bat_voltage * 100) / (BATTERY_FULL_BATTERY_VOLTAGE - 
     3F2:	0010      	ld         ah, #+0x0
     3F3:	F400      	**prefx    0xF4
     3F4:	8034      	add        al, #-0xC80
     3F5:	FF40      	addc       ah, #-0x1
     3F6:	E019      	ld         x, @0xFFE0 <register ah>
     3F7:	F825      	st         al, @0xFFF8 <(scratchpad)>
     3F8:	E315      	ld         al, @0xFFE3 <register uxl>
     3F9:	6490      	smult      #+0x64
     3FA:	E119      	ld         x, @0xFFE1 <register al>
     3FB:	F815      	ld         al, @0xFFF8 <(scratchpad)>
     3FC:	0009      	**unsigned
     3FD:	6490      	umult      #0x64
     3FE:	F925      	st         al, @0xFFF9 <(scratchpad)>
     3FF:	F821      	st         ah, @0xFFF8 <(scratchpad)>
     400:	F839      	add        x, @0xFFF8 <(scratchpad)>
     401:	0010      	ld         ah, #+0x0
     402:	0023      	st         ah, @(0x0, y)
     403:	0300      	**prefx    0x3
     404:	2014      	ld         al, #+0x320
     405:	0127      	st         al, @(+0x1, y)
     406:	F915      	ld         al, @0xFFF9 <(scratchpad)>
     407:	E311      	ld         ah, @0xFFE3 <register uxl>
     408:	0100      	**prefx    0x1
     409:	B000      	**prefx    0xB0
     40A:	E79C      	bsr        +0xAFE7 <__udivhi3:0xB3F1[p]>
     40B:	E099      	tst        @0xFFE0 <register ah>
     40C:	03F0      	bne        +0x3 <.LASFDE2+0x3:0x40F[p]>
     40D:	6584      	cmp        al, #+0x65
     40E:	02FC      	bcs        +0x2 <.LASFDE2+0x4:0x410[p]>
     40F:	6414      	ld         al, #+0x64
        bat_level = 100;
    }

    /* Return the battery level (as a percentage of full) */
    return (uint8)bat_level;
}
     410:	030F      	leave      #+0x3

0x00000411 <BatteryUpdateLevel>:
 *
 *  RETURNS
 *      Nothing
 *----------------------------------------------------------------------------*/
extern void BatteryUpdateLevel(uint16 ucid)
{
     411:	050B      	enter      #+0x5
     412:	0327      	st         al, @(+0x3, y)
    uint8 old_vbat;                     /* Previous battery level, percent */
    uint8 cur_bat_level;                /* Current battery level, percent */

    /* Read the battery level */
    cur_bat_level = readBatteryLevel();
     413:	D69C      	bsr        -0x2A <readBatteryLevel:0x3E9[p]>
     414:	E111      	ld         ah, @0xFFE1 <register al>
    old_vbat = g_batt_data.level;

    /* If the current and old battery level are not same, update the  connected
     * host if notifications are configured.
     */
    if(old_vbat != cur_bat_level)
     415:	3E00      	**prefx    0x3E
     416:	D115      	ld         al, @0x3DD1 <g_batt_data>
     417:	E085      	cmp        al, @0xFFE0 <register ah>
     418:	15F4      	beq        +0x15 <.LASFDE4+0x9:0x42D[p]>
    {

        if((ucid != GATT_INVALID_UCID) &&
     419:	0317      	ld         al, @(+0x3, y)
     41A:	FF84      	cmp        al, #-0x1
     41B:	12F4      	beq        +0x12 <.LASFDE4+0x9:0x42D[p]>
     41C:	3E00      	**prefx    0x3E
     41D:	D215      	ld         al, @0x3DD2 <g_batt_data+0x1>
     41E:	0184      	cmp        al, #+0x1
     41F:	0EF0      	bne        +0xE <.LASFDE4+0x9:0x42D[p]>
{
    uint8 old_vbat;                     /* Previous battery level, percent */
    uint8 cur_bat_level;                /* Current battery level, percent */

    /* Read the battery level */
    cur_bat_level = readBatteryLevel();
     420:	0223      	st         ah, @(+0x2, y)

        if((ucid != GATT_INVALID_UCID) &&
           (g_batt_data.level_client_config == gatt_client_config_notification))
        {

            GattCharValueNotification(ucid, 
     421:	0027      	st         al, @(0x0, y)
     422:	E415      	ld         al, @0xFFE4 <register uy>
     423:	0234      	add        al, #+0x2
     424:	0127      	st         al, @(+0x1, y)
     425:	0317      	ld         al, @(+0x3, y)
     426:	1C10      	ld         ah, #+0x1C
     427:	0100      	**prefx    0x1
     428:	AE00      	**prefx    0xAE
     429:	879C      	bsr        +0xAD87 <GattCharValueNotification:0xB1B0[p]>
                                      HANDLE_BATT_LEVEL, 
                                      1, &cur_bat_level);

            /* Update Battery Level characteristic in database */
            g_batt_data.level = cur_bat_level;
     42A:	0217      	ld         al, @(+0x2, y)
     42B:	3E00      	**prefx    0x3E
     42C:	D125      	st         al, @0x3DD1 <g_batt_data>

        }
    }
}
     42D:	050F      	leave      #+0x5

0x0000042E <BatteryHandleAccessWrite>:
 *
 *  RETURNS
 *      Nothing
 *----------------------------------------------------------------------------*/
extern void BatteryHandleAccessWrite(GATT_ACCESS_IND_T *p_ind)
{
     42E:	070B      	enter      #+0x7
     42F:	0527      	st         al, @(+0x5, y)
    uint8 *p_value = p_ind->value;      /* New attribute value */
     430:	E119      	ld         x, @0xFFE1 <register al>
     431:	061A      	ld         x, @(+0x6, x)
     432:	032B      	st         x, @(+0x3, y)
    uint16 client_config;               /* Client configuration descriptor */
    sys_status rc = sys_status_success; /* Function status */

    switch(p_ind->handle)
     433:	E119      	ld         x, @0xFFE1 <register al>
     434:	0216      	ld         al, @(+0x2, x)
     435:	1D84      	cmp        al, #+0x1D
     436:	04F4      	beq        +0x4 <.LEFDE4+0x2:0x43A[p]>
     437:	0A00      	**prefx    0xA
     438:	0314      	ld         al, #+0xA03
     439:	1CE0      	bra        +0x1C <.LASFDE0+0x9:0x455[p]>
        case HANDLE_BATT_LEVEL_C_CFG:
        {
            /* Write the client configuration descriptor for the battery level
             * characteristic.
             */
            client_config = BufReadUint16(&p_value);
     43A:	E415      	ld         al, @0xFFE4 <register uy>
     43B:	0334      	add        al, #+0x3
     43C:	0100      	**prefx    0x1
     43D:	8900      	**prefx    0x89
     43E:	759C      	bsr        +0x8975 <BufReadUint16:0x8DB3[p]>
     43F:	0427      	st         al, @(+0x4, y)

            /* Only notifications are allowed for this client configuration 
             * descriptor.
             */
            if((client_config == gatt_client_config_notification) ||
     440:	0184      	cmp        al, #+0x1
     441:	052C      	bcz        +0x5 <L0+0x8:0x446[p]>
     442:	0B00      	**prefx    0xB
     443:	8018      	ld         x, #+0xA80
     444:	F829      	st         x, @0xFFF8 <(scratchpad)>
     445:	11E0      	bra        +0x11 <.LASFDE0+0xA:0x456[p]>
               (client_config == gatt_client_config_none))
            {
                g_batt_data.level_client_config = client_config;
     446:	3E00      	**prefx    0x3E
     447:	D225      	st         al, @0x3DD2 <g_batt_data+0x1>

                /* Write battery level client configuration to NVM if the 
                 * device is bonded.
                 */
                if(IsDeviceBonded())
     448:	0400      	**prefx    0x4
     449:	DB9C      	bsr        +0x3DB <IsDeviceBonded:0x824[p]>
     44A:	E199      	tst        @0xFFE1 <register al>
     44B:	0AF4      	beq        +0xA <.LASFDE0+0x9:0x455[p]>
                {
                     Nvm_Write(&client_config,
     44C:	3E00      	**prefx    0x3E
     44D:	D319      	ld         x, @0x3DD3 <g_batt_data+0x2>
     44E:	002B      	st         x, @(0x0, y)
     44F:	E415      	ld         al, @0xFFE4 <register uy>
     450:	0434      	add        al, #+0x4
     451:	0110      	ld         ah, #+0x1
     452:	0400      	**prefx    0x4
     453:	AF9C      	bsr        +0x3AF <Nvm_Write:0x802[p]>
     454:	0014      	ld         al, #+0x0
     455:	F825      	st         al, @0xFFF8 <(scratchpad)>
        break;

    }

    /* Send ACCESS RESPONSE */
    GattAccessRsp(p_ind->cid, p_ind->handle, rc, 0, NULL);
     456:	051B      	ld         x, @(+0x5, y)
     457:	0116      	ld         al, @(+0x1, x)
     458:	0212      	ld         ah, @(+0x2, x)
     459:	F819      	ld         x, @0xFFF8 <(scratchpad)>
     45A:	002B      	st         x, @(0x0, y)
     45B:	0018      	ld         x, #+0x0
     45C:	012B      	st         x, @(+0x1, y)
     45D:	022B      	st         x, @(+0x2, y)
     45E:	0100      	**prefx    0x1
     45F:	AC00      	**prefx    0xAC
     460:	1E9C      	bsr        +0xAC1E <GattAccessRsp:0xB07E[p]>

    /* Send an update as soon as notifications are configured */
    if(g_batt_data.level_client_config == gatt_client_config_notification)
     461:	3E00      	**prefx    0x3E
     462:	D215      	ld         al, @0x3DD2 <g_batt_data+0x1>
     463:	0184      	cmp        al, #+0x1
     464:	08F0      	bne        +0x8 <.LASFDE4:0x46C[p]>
    {
        /* Reset current battery level to an invalid value so that it 
         * triggers notifications on reading the current battery level 
         */
        g_batt_data.level = 0xFF; /* 0 to 100: Valid value range */
     465:	0100      	**prefx    0x1
     466:	FF14      	ld         al, #+0xFF
     467:	3E00      	**prefx    0x3E
     468:	D125      	st         al, @0x3DD1 <g_batt_data>

        /* Update the battery level and send notification. */
        BatteryUpdateLevel(p_ind->cid);
     469:	051B      	ld         x, @(+0x5, y)
     46A:	0116      	ld         al, @(+0x1, x)
     46B:	A69C      	bsr        -0x5A <BatteryUpdateLevel:0x411[p]>
    }

}
     46C:	070F      	leave      #+0x7

0x0000046D <BatteryHandleAccessRead>:
 *
 *  RETURNS
 *      Nothing
 *----------------------------------------------------------------------------*/
extern void BatteryHandleAccessRead(GATT_ACCESS_IND_T *p_ind)
{
     46D:	080B      	enter      #+0x8
     46E:	0627      	st         al, @(+0x6, y)
    uint16 length = 0;                  /* Length of attribute data, octets */
    uint8  value[2];                    /* Attribute value */
    uint8 *p_val = NULL;                /* Pointer to attribute value */
     46F:	0014      	ld         al, #+0x0
     470:	0327      	st         al, @(+0x3, y)
    sys_status rc = sys_status_success; /* Function status */

    switch(p_ind->handle)
     471:	061B      	ld         x, @(+0x6, y)
     472:	0216      	ld         al, @(+0x2, x)
     473:	1C84      	cmp        al, #+0x1C
     474:	08F4      	beq        +0x8 <.LASFDE6:0x47C[p]>
     475:	1D84      	cmp        al, #+0x1D
     476:	10F4      	beq        +0x10 <.LASFDE6+0xA:0x486[p]>
     477:	0014      	ld         al, #+0x0
     478:	F825      	st         al, @0xFFF8 <(scratchpad)>
     479:	0A00      	**prefx    0xA
     47A:	0218      	ld         x, #+0xA02
     47B:	09E0      	bra        +0x9 <.LASFDE6+0x8:0x484[p]>
        case HANDLE_BATT_LEVEL:
        {
            /* Read the battery level */
            length = 1; /* One Octet */

            g_batt_data.level = readBatteryLevel();
     47C:	FF00      	**prefx    0xFF
     47D:	6C9C      	bsr        -0x94 <readBatteryLevel:0x3E9[p]>
     47E:	3E00      	**prefx    0x3E
     47F:	D125      	st         al, @0x3DD1 <g_batt_data>

            value[0] = g_batt_data.level;
     480:	0427      	st         al, @(+0x4, y)
     481:	0114      	ld         al, #+0x1
     482:	F825      	st         al, @0xFFF8 <(scratchpad)>
     483:	0018      	ld         x, #+0x0
     484:	F929      	st         x, @0xFFF9 <(scratchpad)>
     485:	0EE0      	bra        +0xE <.LASFDE8+0x7:0x493[p]>
        {
            /* Read the client configuration descriptor for the battery level
             * characteristic.
             */
            length = 2; /* Two Octets */
            p_val = value;
     486:	E415      	ld         al, @0xFFE4 <register uy>
     487:	0434      	add        al, #+0x4
     488:	0327      	st         al, @(+0x3, y)

            BufWriteUint16((uint8 **)&p_val, g_batt_data.level_client_config);
     489:	FF34      	add        al, #-0x1
     48A:	3E00      	**prefx    0x3E
     48B:	D211      	ld         ah, @0x3DD2 <g_batt_data+0x1>
     48C:	0100      	**prefx    0x1
     48D:	8900      	**prefx    0x89
     48E:	439C      	bsr        +0x8943 <BufWriteUint16:0x8DD1[p]>
     48F:	0218      	ld         x, #+0x2
     490:	F829      	st         x, @0xFFF8 <(scratchpad)>
     491:	0014      	ld         al, #+0x0
     492:	F925      	st         al, @0xFFF9 <(scratchpad)>
        break;

    }

    /* Send ACCESS RESPONSE */
    GattAccessRsp(p_ind->cid, p_ind->handle, rc, length, value);
     493:	061B      	ld         x, @(+0x6, y)
     494:	0116      	ld         al, @(+0x1, x)
     495:	0212      	ld         ah, @(+0x2, x)
     496:	F919      	ld         x, @0xFFF9 <(scratchpad)>
     497:	002B      	st         x, @(0x0, y)
     498:	F819      	ld         x, @0xFFF8 <(scratchpad)>
     499:	012B      	st         x, @(+0x1, y)
     49A:	E419      	ld         x, @0xFFE4 <register uy>
     49B:	0438      	add        x, #+0x4
     49C:	022B      	st         x, @(+0x2, y)
     49D:	0100      	**prefx    0x1
     49E:	AC00      	**prefx    0xAC
     49F:	DF9C      	bsr        +0xABDF <GattAccessRsp:0xB07E[p]>

}
     4A0:	080F      	leave      #+0x8

0x000004A1 <DeviceInfoCheckHandleRange>:
 *  RETURNS
 *      TRUE if handle belongs to the Device Information Service, FALSE
 *      otherwise
 *----------------------------------------------------------------------------*/
extern bool DeviceInfoCheckHandleRange(uint16 handle)
{
     4A1:	0010      	ld         ah, #+0x0
     4A2:	F734      	add        al, #-0x9
     4A3:	1184      	cmp        al, #+0x11
     4A4:	02F8      	bcc        +0x2 <DeviceInfoCheckHandleRange+0x5:0x4A6[p]>
     4A5:	0110      	ld         ah, #+0x1
    return ((handle >= HANDLE_DEVICE_INFO_SERVICE) &&
            (handle <= HANDLE_DEVICE_INFO_SERVICE_END))
            ? TRUE : FALSE;
}
     4A6:	E015      	ld         al, @0xFFE0 <register ah>
     4A7:	00E2      	bra        0x0, x

0x000004A8 <DeviceInfoHandleAccessRead>:
 *
 *  RETURNS
 *      Nothing
 *----------------------------------------------------------------------------*/
extern void DeviceInfoHandleAccessRead(GATT_ACCESS_IND_T *p_ind)
{
     4A8:	090B      	enter      #+0x9
     4A9:	0727      	st         al, @(+0x7, y)
    uint16 length = 0;                  /* Length of attribute data, octets */
    uint8 *p_value = NULL;              /* Pointer to attribute value */
    sys_status rc = gatt_status_unlikely_error;/* Function status */
    
    switch(p_ind->handle)
     4AA:	E119      	ld         x, @0xFFE1 <register al>
     4AB:	0216      	ld         al, @(+0x2, x)
     4AC:	0F84      	cmp        al, #+0xF
     4AD:	07F4      	beq        +0x7 <.LASFDE12:0x4B4[p]>
     4AE:	0010      	ld         ah, #+0x0
     4AF:	F921      	st         ah, @0xFFF9 <(scratchpad)>
     4B0:	F821      	st         ah, @0xFFF8 <(scratchpad)>
     4B1:	0A00      	**prefx    0xA
     4B2:	0214      	ld         al, #+0xA02
     4B3:	33E0      	bra        +0x33 <.LASFDE16+0x2:0x4E6[p]>
 *----------------------------------------------------------------------------*/
static bool getSystemId(SYSTEM_ID_T * sys_id)
{
    BD_ADDR_T bdaddr;           /* Device's Bluetooth address */
    
    if(CSReadBdaddr(&bdaddr))
     4B4:	E415      	ld         al, @0xFFE4 <register uy>
     4B5:	0334      	add        al, #+0x3
     4B6:	0100      	**prefx    0x1
     4B7:	E000      	**prefx    0xE0
     4B8:	8F9C      	bsr        +0xDF8F <CSReadBdaddr:0xE447[p]>
     4B9:	E199      	tst        @0xFFE1 <register al>
     4BA:	08F0      	bne        +0x8 <.LASFDE12+0xE:0x4C2[p]>
     4BB:	0818      	ld         x, #+0x8
     4BC:	F929      	st         x, @0xFFF9 <(scratchpad)>
     4BD:	0010      	ld         ah, #+0x0
     4BE:	F821      	st         ah, @0xFFF8 <(scratchpad)>
     4BF:	0A00      	**prefx    0xA
     4C0:	0E14      	ld         al, #+0xA0E
     4C1:	25E0      	bra        +0x25 <.LASFDE16+0x2:0x4E6[p]>
    {
        /* Manufacturer-defined identifier */
        sys_id->byte[0] = (uint8)(bdaddr.lap);
     4C2:	041B      	ld         x, @(+0x4, y)
     4C3:	0313      	ld         ah, @(+0x3, y)
     4C4:	FA21      	st         ah, @0xFFFA <(scratchpad)>
     4C5:	3E00      	**prefx    0x3E
     4C6:	D429      	st         x, @0x3DD4 <g_dev_info_data>
        sys_id->byte[1] = (uint8)(bdaddr.lap >> 8);
     4C7:	E315      	ld         al, @0xFFE3 <register uxl>
     4C8:	0009      	**unsigned
     4C9:	08A4      	lsr        #0x8
     4CA:	3E00      	**prefx    0x3E
     4CB:	D525      	st         al, @0x3DD5 <g_dev_info_data+0x1>
        sys_id->byte[2] = (uint8)(bdaddr.lap >> 16);
     4CC:	FA15      	ld         al, @0xFFFA <(scratchpad)>
     4CD:	3E00      	**prefx    0x3E
     4CE:	D625      	st         al, @0x3DD6 <g_dev_info_data+0x2>
        sys_id->byte[3] = (uint8)(SYSTEM_ID_FIXED_CONSTANT);
     4CF:	FE18      	ld         x, #-0x2
     4D0:	3E00      	**prefx    0x3E
     4D1:	D729      	st         x, @0x3DD7 <g_dev_info_data+0x3>
        sys_id->byte[4] = (uint8)(SYSTEM_ID_FIXED_CONSTANT >> 8);
     4D2:	0100      	**prefx    0x1
     4D3:	FF10      	ld         ah, #+0xFF
     4D4:	3E00      	**prefx    0x3E
     4D5:	D821      	st         ah, @0x3DD8 <g_dev_info_data+0x4>

        /* Organizationally Unique Identifier */
        sys_id->byte[5] = (uint8)(bdaddr.uap);
     4D6:	0517      	ld         al, @(+0x5, y)
     4D7:	3E00      	**prefx    0x3E
     4D8:	D925      	st         al, @0x3DD9 <g_dev_info_data+0x5>
        sys_id->byte[6] = (uint8)(bdaddr.nap);
     4D9:	0613      	ld         ah, @(+0x6, y)
     4DA:	3E00      	**prefx    0x3E
     4DB:	DA21      	st         ah, @0x3DDA <g_dev_info_data+0x6>
        sys_id->byte[7] = (uint8)(bdaddr.nap >> 8);
     4DC:	0009      	**unsigned
     4DD:	08A4      	lsr        #0x8
     4DE:	3E00      	**prefx    0x3E
     4DF:	DB21      	st         ah, @0x3DDB <g_dev_info_data+0x7>
     4E0:	0818      	ld         x, #+0x8
     4E1:	F929      	st         x, @0xFFF9 <(scratchpad)>
     4E2:	3E00      	**prefx    0x3E
     4E3:	D410      	ld         ah, #+0x3DD4
     4E4:	F821      	st         ah, @0xFFF8 <(scratchpad)>
     4E5:	0014      	ld         al, #+0x0
     4E6:	FA25      	st         al, @0xFFFA <(scratchpad)>
        }
        break;
    }

    /* Send response indication */
    GattAccessRsp(p_ind->cid, p_ind->handle, rc, length, p_value);
     4E7:	071B      	ld         x, @(+0x7, y)
     4E8:	0116      	ld         al, @(+0x1, x)
     4E9:	0212      	ld         ah, @(+0x2, x)
     4EA:	FA19      	ld         x, @0xFFFA <(scratchpad)>
     4EB:	002B      	st         x, @(0x0, y)
     4EC:	F919      	ld         x, @0xFFF9 <(scratchpad)>
     4ED:	012B      	st         x, @(+0x1, y)
     4EE:	F819      	ld         x, @0xFFF8 <(scratchpad)>
     4EF:	022B      	st         x, @(+0x2, y)
     4F0:	0100      	**prefx    0x1
     4F1:	AC00      	**prefx    0xAC
     4F2:	8C9C      	bsr        +0xAB8C <GattAccessRsp:0xB07E[p]>
}
     4F3:	090F      	leave      #+0x9

0x000004F4 <GapCheckHandleRange>:
 *
 *  RETURNS
 *      TRUE if handle belongs to the GAP Service, FALSE otherwise
 *----------------------------------------------------------------------------*/
extern bool GapCheckHandleRange(uint16 handle)
{
     4F4:	0010      	ld         ah, #+0x0
     4F5:	FF34      	add        al, #-0x1
     4F6:	0784      	cmp        al, #+0x7
     4F7:	02F8      	bcc        +0x2 <.LEFDE16+0x1:0x4F9[p]>
     4F8:	0110      	ld         ah, #+0x1
    return ((handle >= HANDLE_GAP_SERVICE) &&
            (handle <= HANDLE_GAP_SERVICE_END))
            ? TRUE : FALSE;
}
     4F9:	E015      	ld         al, @0xFFE0 <register ah>
     4FA:	00E2      	bra        0x0, x

0x000004FB <GapGetNameAndLength>:
 *
 *  RETURNS
 *      Device name array, including AD Type and device name.
 *----------------------------------------------------------------------------*/
extern uint8 *GapGetNameAndLength(uint16 *p_name_length)
{
     4FB:	020B      	enter      #+0x2
     4FC:	0027      	st         al, @(0x0, y)
    /* Update the device name length. */
    *p_name_length = StrLen((char *)g_device_name);
     4FD:	3F00      	**prefx    0x3F
     4FE:	1214      	ld         al, #+0x3F12
     4FF:	0100      	**prefx    0x1
     500:	AE00      	**prefx    0xAE
     501:	D19C      	bsr        +0xADD1 <StrLen:0xB2D2[p]>
     502:	001B      	ld         x, @(0x0, y)
     503:	0026      	st         al, @(0x0, x)

    /* Return the device name pointer */
    return g_device_name;
}
     504:	3F00      	**prefx    0x3F
     505:	1214      	ld         al, #+0x3F12
     506:	020F      	leave      #+0x2

0x00000507 <GapDataInit>:
 *
 *  RETURNS
 *      Nothing
 *----------------------------------------------------------------------------*/
extern void GapDataInit(void)
{
     507:	010B      	enter      #+0x1
    /* Skip first byte to move over AD Type field and point to device name */
    g_gap_data.p_dev_name = (g_device_name + 1);
     508:	3F00      	**prefx    0x3F
     509:	1314      	ld         al, #+0x3F13
     50A:	3E00      	**prefx    0x3E
     50B:	DD25      	st         al, @0x3DDD <g_gap_data+0x1>
    g_gap_data.length = StrLen((char *)g_gap_data.p_dev_name);
     50C:	0100      	**prefx    0x1
     50D:	AE00      	**prefx    0xAE
     50E:	C49C      	bsr        +0xADC4 <StrLen:0xB2D2[p]>
     50F:	3E00      	**prefx    0x3E
     510:	DC25      	st         al, @0x3DDC <g_gap_data>
}
     511:	010F      	leave      #+0x1

0x00000512 <gapWriteDeviceNameToNvm>:
 *
 *  RETURNS
 *      Nothing
 *----------------------------------------------------------------------------*/
static void gapWriteDeviceNameToNvm(void)
{
     512:	020B      	enter      #+0x2

    /* Write device name length to NVM */
    Nvm_Write(&g_gap_data.length, sizeof(g_gap_data.length), 
     513:	3E00      	**prefx    0x3E
     514:	DE18      	ld         x, #+0x3DDE
     515:	001A      	ld         x, @(0x0, x)
     516:	002B      	st         x, @(0x0, y)
     517:	3E00      	**prefx    0x3E
     518:	DC14      	ld         al, #+0x3DDC
     519:	0110      	ld         ah, #+0x1
     51A:	0300      	**prefx    0x3
     51B:	E79C      	bsr        +0x2E7 <Nvm_Write:0x802[p]>

    /* Write device name to NVM 
     * Typecasting uint8 to uint16 or vice-versa does not have any side effects
     * as both types (uint8 and uint16) take one word of memory on the XAP
     */
    Nvm_Write((uint16*)g_gap_data.p_dev_name, g_gap_data.length, 
     51C:	3E00      	**prefx    0x3E
     51D:	DE18      	ld         x, #+0x3DDE
     51E:	0016      	ld         al, @(0x0, x)
     51F:	0134      	add        al, #+0x1
     520:	0027      	st         al, @(0x0, y)
     521:	3E00      	**prefx    0x3E
     522:	DD15      	ld         al, @0x3DDD <g_gap_data+0x1>
     523:	3E00      	**prefx    0x3E
     524:	DC11      	ld         ah, @0x3DDC <g_gap_data>
     525:	0300      	**prefx    0x3
     526:	DC9C      	bsr        +0x2DC <Nvm_Write:0x802[p]>
              g_gap_data.nvm_offset + 
              GAP_NVM_DEVICE_NAME_OFFSET);

}
     527:	020F      	leave      #+0x2

0x00000528 <GapInitWriteDataToNVM>:
 *
 *  RETURNS
 *      Nothing
 *----------------------------------------------------------------------------*/
extern void GapInitWriteDataToNVM(uint16 *p_offset)
{
     528:	020B      	enter      #+0x2
     529:	0027      	st         al, @(0x0, y)

    /* The NVM offset at which GAP Service data will be stored */
    g_gap_data.nvm_offset = *p_offset;
     52A:	E119      	ld         x, @0xFFE1 <register al>
     52B:	001A      	ld         x, @(0x0, x)
     52C:	3E00      	**prefx    0x3E
     52D:	DE29      	st         x, @0x3DDE <g_gap_data+0x2>

    /* Write device name to NVM */
    gapWriteDeviceNameToNvm();
     52E:	E49C      	bsr        -0x1C <gapWriteDeviceNameToNvm:0x512[p]>

    /* Increase NVM offset for maximum device name length. Add 1 for
     * 'device name length' field as well
     */
    *p_offset += DEVICE_NAME_MAX_LENGTH + 1;
     52F:	001B      	ld         x, @(0x0, y)
     530:	0016      	ld         al, @(0x0, x)
     531:	1534      	add        al, #+0x15
     532:	0026      	st         al, @(0x0, x)

}
     533:	020F      	leave      #+0x2

0x00000534 <GapReadDataFromNVM>:
 *
 *  RETURNS
 *      Nothing
 *----------------------------------------------------------------------------*/
extern void GapReadDataFromNVM(uint16 *p_offset)
{
     534:	030B      	enter      #+0x3
     535:	0127      	st         al, @(+0x1, y)

    g_gap_data.nvm_offset = *p_offset;
     536:	E119      	ld         x, @0xFFE1 <register al>
     537:	0016      	ld         al, @(0x0, x)
     538:	3E00      	**prefx    0x3E
     539:	DE18      	ld         x, #+0x3DDE
     53A:	0026      	st         al, @(0x0, x)

    /* Read Device Length */
    Nvm_Read(&g_gap_data.length, sizeof(g_gap_data.length), 
     53B:	011B      	ld         x, @(+0x1, y)
     53C:	001A      	ld         x, @(0x0, x)
     53D:	002B      	st         x, @(0x0, y)
     53E:	3E00      	**prefx    0x3E
     53F:	DC14      	ld         al, #+0x3DDC
     540:	0110      	ld         ah, #+0x1
     541:	0300      	**prefx    0x3
     542:	CE9C      	bsr        +0x2CE <Nvm_Read:0x810[p]>

    /* Read Device Name
     * Typecasting uint8 to uint16 or vice-versa does not have any side effects
     * as both types (uint8 and uint16) take one word of memory on the XAP
     */
    Nvm_Read((uint16*)g_gap_data.p_dev_name, g_gap_data.length, 
     543:	011B      	ld         x, @(+0x1, y)
     544:	0016      	ld         al, @(0x0, x)
     545:	0134      	add        al, #+0x1
     546:	0027      	st         al, @(0x0, y)
     547:	3E00      	**prefx    0x3E
     548:	DD15      	ld         al, @0x3DDD <g_gap_data+0x1>
     549:	3E00      	**prefx    0x3E
     54A:	DC11      	ld         ah, @0x3DDC <g_gap_data>
     54B:	0300      	**prefx    0x3
     54C:	C49C      	bsr        +0x2C4 <Nvm_Read:0x810[p]>
             *p_offset + 
             GAP_NVM_DEVICE_NAME_OFFSET);

    /* Add NUL character to terminate the device name string */
    g_gap_data.p_dev_name[g_gap_data.length] = '\0';
     54D:	3E00      	**prefx    0x3E
     54E:	DD19      	ld         x, @0x3DDD <g_gap_data+0x1>
     54F:	3E00      	**prefx    0x3E
     550:	DC39      	add        x, @0x3DDC <g_gap_data>
     551:	0014      	ld         al, #+0x0
     552:	0026      	st         al, @(0x0, x)

    /* Increase NVM offset for maximum device name length. Add 1 for
     * 'device name length' field as well
     */
    *p_offset += DEVICE_NAME_MAX_LENGTH + 1;
     553:	011B      	ld         x, @(+0x1, y)
     554:	0016      	ld         al, @(0x0, x)
     555:	1534      	add        al, #+0x15
     556:	0026      	st         al, @(0x0, x)

}
     557:	030F      	leave      #+0x3

0x00000558 <GapHandleAccessRead>:
 *
 *  RETURNS
 *      Nothing
 *----------------------------------------------------------------------------*/
extern void GapHandleAccessRead(GATT_ACCESS_IND_T *p_ind)
{
     558:	040B      	enter      #+0x4
     559:	F925      	st         al, @0xFFF9 <(scratchpad)>
    uint16 length = 0;                  /* Length of attribute data, octets */
    uint8 *p_value = NULL;              /* Pointer to attribute value */
    sys_status rc = sys_status_success; /* Function status */

    switch(p_ind->handle)
     55A:	E119      	ld         x, @0xFFE1 <register al>
     55B:	021A      	ld         x, @(+0x2, x)
     55C:	FA29      	st         x, @0xFFFA <(scratchpad)>
     55D:	0388      	cmp        x, #+0x3
     55E:	04F4      	beq        +0x4 <.LEFDE26+0x2:0x562[p]>
     55F:	0A00      	**prefx    0xA
     560:	0210      	ld         ah, #+0xA02
     561:	09E0      	bra        +0x9 <.LASFDE28+0x6:0x56A[p]>
        case HANDLE_DEVICE_NAME:
        {
            /* Validate offset against length, it should be less than the
             * device name length
             */
            if(p_ind->offset < g_gap_data.length)
     562:	E119      	ld         x, @0xFFE1 <register al>
     563:	0416      	ld         al, @(+0x4, x)
     564:	3E00      	**prefx    0x3E
     565:	DC19      	ld         x, @0x3DDC <g_gap_data>
     566:	E385      	cmp        al, @0xFFE3 <register uxl>
     567:	07FC      	bcs        +0x7 <.LASFDE28+0xA:0x56E[p]>
     568:	0A00      	**prefx    0xA
     569:	0710      	ld         ah, #+0xA07
     56A:	0014      	ld         al, #+0x0
     56B:	F825      	st         al, @0xFFF8 <(scratchpad)>
     56C:	FB25      	st         al, @0xFFFB <(scratchpad)>
     56D:	08E0      	bra        +0x8 <L0+0x3:0x575[p]>
            {
                length = g_gap_data.length - p_ind->offset;
     56E:	E159      	sub        x, @0xFFE1 <register al>
     56F:	F829      	st         x, @0xFFF8 <(scratchpad)>
                p_value = g_gap_data.p_dev_name + p_ind->offset;
     570:	3E00      	**prefx    0x3E
     571:	DD19      	ld         x, @0x3DDD <g_gap_data+0x1>
     572:	E335      	add        al, @0xFFE3 <register uxl>
     573:	FB25      	st         al, @0xFFFB <(scratchpad)>
     574:	0010      	ld         ah, #+0x0
        break;

    }

    /* Send the GATT response. */
    GattAccessRsp(p_ind->cid, p_ind->handle, rc, length, p_value);
     575:	F919      	ld         x, @0xFFF9 <(scratchpad)>
     576:	0116      	ld         al, @(+0x1, x)
     577:	0023      	st         ah, @(0x0, y)
     578:	F819      	ld         x, @0xFFF8 <(scratchpad)>
     579:	012B      	st         x, @(+0x1, y)
     57A:	FB19      	ld         x, @0xFFFB <(scratchpad)>
     57B:	022B      	st         x, @(+0x2, y)
     57C:	FA11      	ld         ah, @0xFFFA <(scratchpad)>
     57D:	0100      	**prefx    0x1
     57E:	AB00      	**prefx    0xAB
     57F:	FF9C      	bsr        +0xAAFF <GattAccessRsp:0xB07E[p]>

}
     580:	040F      	leave      #+0x4

0x00000581 <GapHandleAccessWrite>:
 *
 *  RETURNS
 *      Nothing
 *----------------------------------------------------------------------------*/
extern void GapHandleAccessWrite(GATT_ACCESS_IND_T *p_ind)
{
     581:	050B      	enter      #+0x5
     582:	0327      	st         al, @(+0x3, y)
    sys_status rc = sys_status_success; /* Function status */

    switch(p_ind->handle)
     583:	E119      	ld         x, @0xFFE1 <register al>
     584:	0216      	ld         al, @(+0x2, x)
     585:	0384      	cmp        al, #+0x3
     586:	05F4      	beq        +0x5 <GapHandleAccessWrite+0xA:0x58B[p]>
     587:	0A00      	**prefx    0xA
     588:	0314      	ld         al, #+0xA03
     589:	F825      	st         al, @0xFFF8 <(scratchpad)>
     58A:	1AE0      	bra        +0x1A <.LASFDE32+0x10:0x5A4[p]>
    {

        case HANDLE_DEVICE_NAME:
            /* Update device name */
            updateDeviceName(p_ind->size_value, p_ind->value);
     58B:	031B      	ld         x, @(+0x3, y)
     58C:	0516      	ld         al, @(+0x5, x)
     58D:	061A      	ld         x, @(+0x6, x)
     58E:	F929      	st         x, @0xFFF9 <(scratchpad)>
 *      Nothing
 *----------------------------------------------------------------------------*/
static void updateDeviceName(uint16 length, uint8 *name)
{
    /* Pointer to the device name in local storage */
    uint8   *p_name = g_gap_data.p_dev_name;
     58F:	3E00      	**prefx    0x3E
     590:	DD19      	ld         x, @0x3DDD <g_gap_data+0x1>
     591:	F829      	st         x, @0xFFF8 <(scratchpad)>
    
    /* Update device name length limited to a maximum of
     * DEVICE_NAME_MAX_LENGTH */
    if(length < DEVICE_NAME_MAX_LENGTH)
     592:	1484      	cmp        al, #+0x14
     593:	02FC      	bcs        +0x2 <.LASFDE32+0x1:0x595[p]>
        g_gap_data.length = length;
    else
        g_gap_data.length = DEVICE_NAME_MAX_LENGTH;
     594:	1414      	ld         al, #+0x14
     595:	3E00      	**prefx    0x3E
     596:	DC25      	st         al, @0x3DDC <g_gap_data>

    /* Update device name */
    MemCopy(p_name, name, g_gap_data.length);
     597:	3E00      	**prefx    0x3E
     598:	DC15      	ld         al, @0x3DDC <g_gap_data>
     599:	F811      	ld         ah, @0xFFF8 <(scratchpad)>
     59A:	F919      	ld         x, @0xFFF9 <(scratchpad)>
     59B:	FD09      	bc2        

    /* Null terminate the device name string */
    p_name[g_gap_data.length] = '\0';
     59C:	F819      	ld         x, @0xFFF8 <(scratchpad)>
     59D:	3E00      	**prefx    0x3E
     59E:	DC39      	add        x, @0x3DDC <g_gap_data>
     59F:	0026      	st         al, @(0x0, x)

    /* Write updated device name to NVM */
    gapWriteDeviceNameToNvm();
     5A0:	FF00      	**prefx    0xFF
     5A1:	719C      	bsr        -0x8F <gapWriteDeviceNameToNvm:0x512[p]>
     5A2:	0018      	ld         x, #+0x0
     5A3:	F829      	st         x, @0xFFF8 <(scratchpad)>
        break;

    }

    /* Send the GATT response. */
    GattAccessRsp(p_ind->cid, p_ind->handle, rc, 0, NULL);
     5A4:	031B      	ld         x, @(+0x3, y)
     5A5:	0116      	ld         al, @(+0x1, x)
     5A6:	0212      	ld         ah, @(+0x2, x)
     5A7:	F819      	ld         x, @0xFFF8 <(scratchpad)>
     5A8:	002B      	st         x, @(0x0, y)
     5A9:	0018      	ld         x, #+0x0
     5AA:	012B      	st         x, @(+0x1, y)
     5AB:	022B      	st         x, @(+0x2, y)
     5AC:	0100      	**prefx    0x1
     5AD:	AB00      	**prefx    0xAB
     5AE:	D09C      	bsr        +0xAAD0 <GattAccessRsp:0xB07E[p]>

}
     5AF:	050F      	leave      #+0x5

0x000005B0 <InitGattData>:
 *  RETURNS
 *      Nothing
 *----------------------------------------------------------------------------*/
extern void InitGattData(void)
{
    g_gatt_data.advert_timer_value = TIMER_INVALID;
     5B0:	0014      	ld         al, #+0x0
     5B1:	3E00      	**prefx    0x3E
     5B2:	DF25      	st         al, @0x3DDF <g_gatt_data>
     5B3:	3E00      	**prefx    0x3E
     5B4:	E025      	st         al, @0x3DE0 <g_gatt_data+0x1>
}
     5B5:	00E2      	bra        0x0, x

0x000005B6 <GetSupported128BitUUIDServiceList>:
 *
 *  RETURNS
 *      Size of AD Service UUID list
 *----------------------------------------------------------------------------*/
extern uint16 GetSupported128BitUUIDServiceList(uint8 *p_service_uuid_ad)
{
     5B6:	010B      	enter      #+0x1
     5B7:	E119      	ld         x, @0xFFE1 <register al>
    uint8   size_data = 0;              /* Size of AD Service UUID list */

    /* Add 16-bit UUID for supported main service */
    p_service_uuid_ad[size_data++] = AD_TYPE_SERVICE_UUID_128BIT_LIST;
     5B8:	0714      	ld         al, #+0x7
     5B9:	0026      	st         al, @(0x0, x)

    /* Add authentication service UUID */
    p_service_uuid_ad[size_data++] = UUID_AUTH_SERVICE_16;
     5BA:	0E14      	ld         al, #+0xE
     5BB:	0126      	st         al, @(+0x1, x)
    p_service_uuid_ad[size_data++] = UUID_AUTH_SERVICE_15;
     5BC:	6A14      	ld         al, #+0x6A
     5BD:	0226      	st         al, @(+0x2, x)
    p_service_uuid_ad[size_data++] = UUID_AUTH_SERVICE_14;
     5BE:	6834      	add        al, #+0x68
     5BF:	0326      	st         al, @(+0x3, x)
    p_service_uuid_ad[size_data++] = UUID_AUTH_SERVICE_13;
     5C0:	AF34      	add        al, #-0x51
     5C1:	0426      	st         al, @(+0x4, x)
    p_service_uuid_ad[size_data++] = UUID_AUTH_SERVICE_12;
     5C2:	1814      	ld         al, #+0x18
     5C3:	0526      	st         al, @(+0x5, x)
    p_service_uuid_ad[size_data++] = UUID_AUTH_SERVICE_11;
     5C4:	0100      	**prefx    0x1
     5C5:	9910      	ld         ah, #+0x99
     5C6:	0622      	st         ah, @(+0x6, x)
    p_service_uuid_ad[size_data++] = UUID_AUTH_SERVICE_10;
     5C7:	3B14      	ld         al, #+0x3B
     5C8:	0726      	st         al, @(+0x7, x)
    p_service_uuid_ad[size_data++] = UUID_AUTH_SERVICE_9;
     5C9:	5634      	add        al, #+0x56
     5CA:	0826      	st         al, @(+0x8, x)
    p_service_uuid_ad[size_data++] = UUID_AUTH_SERVICE_8;
     5CB:	0926      	st         al, @(+0x9, x)
    p_service_uuid_ad[size_data++] = UUID_AUTH_SERVICE_7;
     5CC:	4B14      	ld         al, #+0x4B
     5CD:	0A26      	st         al, @(+0xA, x)
    p_service_uuid_ad[size_data++] = UUID_AUTH_SERVICE_6;
     5CE:	1C14      	ld         al, #+0x1C
     5CF:	0B26      	st         al, @(+0xB, x)
    p_service_uuid_ad[size_data++] = UUID_AUTH_SERVICE_5;
     5D0:	0C22      	st         ah, @(+0xC, x)
    p_service_uuid_ad[size_data++] = UUID_AUTH_SERVICE_4;
     5D1:	7B14      	ld         al, #+0x7B
     5D2:	0D26      	st         al, @(+0xD, x)
    p_service_uuid_ad[size_data++] = UUID_AUTH_SERVICE_3;
     5D3:	5534      	add        al, #+0x55
     5D4:	0E26      	st         al, @(+0xE, x)
    p_service_uuid_ad[size_data++] = UUID_AUTH_SERVICE_2;
     5D5:	E834      	add        al, #-0x18
     5D6:	0F26      	st         al, @(+0xF, x)
    p_service_uuid_ad[size_data++] = UUID_AUTH_SERVICE_1;
     5D7:	5814      	ld         al, #+0x58
     5D8:	1026      	st         al, @(+0x10, x)

    /* Return the size of AD service data. */
    return ((uint16)size_data);

}
     5D9:	1114      	ld         al, #+0x11
     5DA:	010F      	leave      #+0x1

0x000005DB <GattIsAddressResolvableRandom>:
 *  RETURNS
 *      TRUE if supplied address is a resolvable private address
 *      FALSE if supplied address is non-resolvable private address
 *----------------------------------------------------------------------------*/
extern bool GattIsAddressResolvableRandom(TYPED_BD_ADDR_T *p_addr)
{
     5DB:	010B      	enter      #+0x1
     5DC:	E119      	ld         x, @0xFFE1 <register al>
    if(p_addr->type != L2CA_RANDOM_ADDR_TYPE || 
     5DD:	0016      	ld         al, @(0x0, x)
     5DE:	0184      	cmp        al, #+0x1
     5DF:	03F4      	beq        +0x3 <.LEFDE2+0x2:0x5E2[p]>
     5E0:	0010      	ld         ah, #+0x0
     5E1:	09E0      	bra        +0x9 <.LASFDE4+0x6:0x5EA[p]>
     5E2:	0010      	ld         ah, #+0x0
     5E3:	0416      	ld         al, @(+0x4, x)
     5E4:	C000      	**prefx    0xC0
     5E5:	00C4      	and        al, #0xC000
     5E6:	4000      	**prefx    0x40
     5E7:	0084      	cmp        al, #+0x4000
     5E8:	02F0      	bne        +0x2 <.LASFDE4+0x6:0x5EA[p]>
     5E9:	0110      	ld         ah, #+0x1
    {
        /* This is not a resolvable private address  */
        return FALSE;
    }
    return TRUE;
}
     5EA:	E015      	ld         al, @0xFFE0 <register ah>
     5EB:	010F      	leave      #+0x1

0x000005EC <GattStopAdverts>:
 *
 *  RETURNS
 *      Nothing
 *----------------------------------------------------------------------------*/
extern void GattStopAdverts(void)
{
     5EC:	010B      	enter      #+0x1
    switch(GetState())
     5ED:	0200      	**prefx    0x2
     5EE:	309C      	bsr        +0x230 <GetState:0x81E[p]>
     5EF:	0184      	cmp        al, #+0x1
     5F0:	04F4      	beq        +0x4 <GattStopAdverts+0x8:0x5F4[p]>
     5F1:	0284      	cmp        al, #+0x2
     5F2:	17F0      	bne        +0x17 <.LASFDE6+0xD:0x609[p]>
     5F3:	14E0      	bra        +0x14 <.LASFDE6+0xB:0x607[p]>
    {
        case app_state_fast_advertising:
        {
            if(IsWhiteListEnabled())
     5F4:	0200      	**prefx    0x2
     5F5:	2C9C      	bsr        +0x22C <IsWhiteListEnabled:0x821[p]>
     5F6:	E199      	tst        @0xFFE1 <register al>
     5F7:	08F4      	beq        +0x8 <.LASFDE6+0x3:0x5FF[p]>
            {
                /* Set advertisement timer for remaining 20 seconds for fast
                 * connections without any device in the white list.
                 */
                g_gatt_data.advert_timer_value = 
     5F8:	0100      	**prefx    0x1
     5F9:	3114      	ld         al, #+0x131
     5FA:	3E00      	**prefx    0x3E
     5FB:	DF25      	st         al, @0x3DDF <g_gatt_data>
     5FC:	2D00      	**prefx    0x2D
     5FD:	0014      	ld         al, #+0x2D00
     5FE:	07E0      	bra        +0x7 <.LASFDE6+0x9:0x605[p]>
                                BONDED_DEVICE_ADVERT_TIMEOUT_VALUE;
            }
            else
            {
                /* No advertisement timer for reduced power connections. */
                g_gatt_data.advert_timer_value = 
     5FF:	0400      	**prefx    0x4
     600:	9314      	ld         al, #+0x393
     601:	3E00      	**prefx    0x3E
     602:	DF25      	st         al, @0x3DDF <g_gatt_data>
     603:	8700      	**prefx    0x87
     604:	0014      	ld         al, #-0x7900
     605:	3E00      	**prefx    0x3E
     606:	E025      	st         al, @0x3DE0 <g_gatt_data+0x1>
        }
        /* FALLTHROUGH*/

        case app_state_slow_advertising:
            /* Stop on-going advertisements */
            GattCancelConnectReq();
     607:	0800      	**prefx    0x8
     608:	AD9C      	bsr        +0x7AD <GattCancelConnectReq:0xDB5[p]>

        default:
            /* Ignore timer in remaining states */
        break;
    }
}
     609:	010F      	leave      #+0x1

0x0000060A <gattSetAdvertParams>:
 *
 *  RETURNS
 *      Nothing
 *----------------------------------------------------------------------------*/
static void gattSetAdvertParams(TYPED_BD_ADDR_T *p_addr, bool fast_connection)
{
     60A:	300B      	enter      #+0x30
     60B:	2A27      	st         al, @(+0x2A, y)
     60C:	F821      	st         ah, @0xFFF8 <(scratchpad)>

    /* Tx power level value prefixed with 'Tx Power' AD Type */
    /* Refer to BT4.0 specification, Vol3-part-C-Section-11.1.5 */ 
    uint8 device_tx_power[TX_POWER_VALUE_LENGTH] = {
                AD_TYPE_TX_POWER
                };
     60D:	3D00      	**prefx    0x3D
     60E:	7811      	ld         ah, @0x3D78 <DATA_CONST_END+0x2>
     60F:	0623      	st         ah, @(+0x6, y)
    /* Device appearance */
    uint8 device_appearance[ATTR_LEN_DEVICE_APPEARANCE + 1] = {
                AD_TYPE_APPEARANCE,
                WORD_LSB(APPEARANCE_APPLICATION_VALUE),
                WORD_MSB(APPEARANCE_APPLICATION_VALUE)
                };
     610:	0314      	ld         al, #+0x3
     611:	E411      	ld         ah, @0xFFE4 <register uy>
     612:	0730      	add        ah, #+0x7
     613:	3D00      	**prefx    0x3D
     614:	7918      	ld         x, #+0x3D79
     615:	FD09      	bc2        
     * second byte is AD TYPE = 0x1
     * Third byte is Flags description 
     */
    uint16 length_added_to_adv = 3;

    if(fast_connection)
     616:	F899      	tst        @0xFFF8 <(scratchpad)>
     617:	06F4      	beq        +0x6 <.LSCIE0+0x9:0x61D[p]>
     618:	0010      	ld         ah, #+0x0
     619:	2D23      	st         ah, @(+0x2D, y)
     61A:	EA00      	**prefx    0xEA
     61B:	6014      	ld         al, #-0x15A0
     61C:	05E0      	bra        +0x5 <.LECIE0+0x1:0x621[p]>
     61D:	1310      	ld         ah, #+0x13
     61E:	2D23      	st         ah, @(+0x2D, y)
     61F:	8800      	**prefx    0x88
     620:	0014      	ld         al, #-0x7800
     621:	2E27      	st         al, @(+0x2E, y)
     622:	2B23      	st         ah, @(+0x2B, y)
     623:	2C27      	st         al, @(+0x2C, y)

    /* Tx power level value prefixed with 'Tx Power' AD Type */
    /* Refer to BT4.0 specification, Vol3-part-C-Section-11.1.5 */ 
    uint8 device_tx_power[TX_POWER_VALUE_LENGTH] = {
                AD_TYPE_TX_POWER
                };
     624:	0A10      	ld         ah, #+0xA
     625:	0523      	st         ah, @(+0x5, y)
    uint16 length;                      /* Length of advertisement packet */
    /* Advertisement interval, microseconds */
    uint32 adv_interval_min = RP_ADVERTISING_INTERVAL_MIN;
    uint32 adv_interval_max = RP_ADVERTISING_INTERVAL_MAX;
    /* Transmit power level, dBm */
    int8 tx_power_level = -1;
     626:	FF14      	ld         al, #-0x1
     627:	0327      	st         al, @(+0x3, y)
    {
        adv_interval_min = FC_ADVERTISING_INTERVAL_MIN;
        adv_interval_max = FC_ADVERTISING_INTERVAL_MAX;
    }

    if((GapSetMode(gap_role_peripheral, gap_mode_discover_general,
     628:	0310      	ld         ah, #+0x3
     629:	0023      	st         ah, @(0x0, y)
     62A:	0214      	ld         al, #+0x2
     62B:	0127      	st         al, @(+0x1, y)
     62C:	0110      	ld         ah, #+0x1
     62D:	0223      	st         ah, @(+0x2, y)
     62E:	0314      	ld         al, #+0x3
     62F:	0310      	ld         ah, #+0x3
     630:	0100      	**prefx    0x1
     631:	8800      	**prefx    0x88
     632:	CA9C      	bsr        +0x87CA <GapSetMode:0x8DFC[p]>
     633:	E199      	tst        @0xFFE1 <register al>
     634:	0CF0      	bne        +0xC <.LASFDE2+0x4:0x640[p]>
     635:	2B17      	ld         al, @(+0x2B, y)
     636:	0027      	st         al, @(0x0, y)
     637:	2C13      	ld         ah, @(+0x2C, y)
     638:	0123      	st         ah, @(+0x1, y)
     639:	2D13      	ld         ah, @(+0x2D, y)
     63A:	2E17      	ld         al, @(+0x2E, y)
     63B:	0100      	**prefx    0x1
     63C:	8800      	**prefx    0x88
     63D:	329C      	bsr        +0x8832 <GapSetAdvInterval:0x8E6F[p]>
     63E:	E199      	tst        @0xFFE1 <register al>
     63F:	04F4      	beq        +0x4 <.LASFDE2+0x7:0x643[p]>
                        gap_mode_bond_yes,
                        gap_mode_security_unauthenticate) != ls_err_none) ||
       (GapSetAdvInterval(adv_interval_min, adv_interval_max) 
                        != ls_err_none))
    {
        ReportPanic(app_panic_set_advert_params);
     640:	0014      	ld         al, #+0x0
     641:	0300      	**prefx    0x3
     642:	F69C      	bsr        +0x2F6 <ReportPanic:0x938[p]>
    }

    /* Add bonded device to white list.*/
    if(IsWhiteListEnabled())
     643:	0200      	**prefx    0x2
     644:	DD9C      	bsr        +0x1DD <IsWhiteListEnabled:0x821[p]>
     645:	E199      	tst        @0xFFE1 <register al>
     646:	0AF4      	beq        +0xA <.LEFDE2:0x650[p]>
    {
        /* Initial case when advertisements are started for Bonded host for 
         * 10 seconds. White list is configured with the Bonded host address
         */
        if(LsAddWhiteListDevice(p_addr)!= ls_err_none)
     647:	2A17      	ld         al, @(+0x2A, y)
     648:	0100      	**prefx    0x1
     649:	8B00      	**prefx    0x8B
     64A:	2E9C      	bsr        +0x8B2E <LsAddWhiteListDevice:0x9178[p]>
     64B:	E199      	tst        @0xFFE1 <register al>
     64C:	04F4      	beq        +0x4 <.LEFDE2:0x650[p]>
        {
            ReportPanic(app_panic_add_whitelist);
     64D:	0814      	ld         al, #+0x8
     64E:	0300      	**prefx    0x3
     64F:	E99C      	bsr        +0x2E9 <ReportPanic:0x938[p]>
        }
    }

    /* Reset existing advertising data */
    if(LsStoreAdvScanData(0, NULL, ad_src_advertise) != ls_err_none)
     650:	0014      	ld         al, #+0x0
     651:	0027      	st         al, @(0x0, y)
     652:	0010      	ld         ah, #+0x0
     653:	0700      	**prefx    0x7
     654:	309C      	bsr        +0x730 <LsStoreAdvScanData:0xD84[p]>
     655:	E199      	tst        @0xFFE1 <register al>
     656:	04F4      	beq        +0x4 <.LASFDE4+0x6:0x65A[p]>
    {
        ReportPanic(app_panic_set_advert_data);
     657:	0114      	ld         al, #+0x1
     658:	0300      	**prefx    0x3
     659:	DF9C      	bsr        +0x2DF <ReportPanic:0x938[p]>
    }

    /* Reset existing scan response data */
    if(LsStoreAdvScanData(0, NULL, ad_src_scan_rsp) != ls_err_none)
     65A:	0110      	ld         ah, #+0x1
     65B:	0023      	st         ah, @(0x0, y)
     65C:	0014      	ld         al, #+0x0
     65D:	0010      	ld         ah, #+0x0
     65E:	0700      	**prefx    0x7
     65F:	259C      	bsr        +0x725 <LsStoreAdvScanData:0xD84[p]>
     660:	E199      	tst        @0xFFE1 <register al>
     661:	04F4      	beq        +0x4 <.LASFDE4+0x11:0x665[p]>
    {
        ReportPanic(app_panic_set_scan_rsp_data);
     662:	0214      	ld         al, #+0x2
     663:	0300      	**prefx    0x3
     664:	D49C      	bsr        +0x2D4 <ReportPanic:0x938[p]>
    }

    /* Setup ADVERTISEMENT DATA */

    /* Add UUID list of the services supported by the device */
    length = GetSupported128BitUUIDServiceList(advert_data);    
     665:	E415      	ld         al, @0xFFE4 <register uy>
     666:	0A34      	add        al, #+0xA
     667:	FF00      	**prefx    0xFF
     668:	4E9C      	bsr        -0xB2 <GetSupported128BitUUIDServiceList:0x5B6[p]>
     669:	2927      	st         al, @(+0x29, y)
    /* One added for Length field, which will be added to Adv Data by GAP 
     * layer 
     */
    length_added_to_adv += (length + 1);

    if (LsStoreAdvScanData(length, advert_data, 
     66A:	0014      	ld         al, #+0x0
     66B:	0027      	st         al, @(0x0, y)
     66C:	2917      	ld         al, @(+0x29, y)
     66D:	E411      	ld         ah, @0xFFE4 <register uy>
     66E:	0A30      	add        ah, #+0xA
     66F:	0700      	**prefx    0x7
     670:	149C      	bsr        +0x714 <LsStoreAdvScanData:0xD84[p]>
     671:	E199      	tst        @0xFFE1 <register al>
     672:	04F4      	beq        +0x4 <.LASFDE6+0xA:0x676[p]>
                        ad_src_advertise) != ls_err_none)
    {
        ReportPanic(app_panic_set_advert_data);
     673:	0114      	ld         al, #+0x1
     674:	0300      	**prefx    0x3
     675:	C39C      	bsr        +0x2C3 <ReportPanic:0x938[p]>
     * layer 
     */
    length_added_to_adv += (sizeof(device_appearance) + 1);

    /* Add device appearance to the advertisements */
    if (LsStoreAdvScanData(ATTR_LEN_DEVICE_APPEARANCE + 1, 
     676:	0010      	ld         ah, #+0x0
     677:	0023      	st         ah, @(0x0, y)
     678:	0314      	ld         al, #+0x3
     679:	E411      	ld         ah, @0xFFE4 <register uy>
     67A:	0730      	add        ah, #+0x7
     67B:	0700      	**prefx    0x7
     67C:	089C      	bsr        +0x708 <LsStoreAdvScanData:0xD84[p]>
     67D:	E199      	tst        @0xFFE1 <register al>
     67E:	04F4      	beq        +0x4 <.LEFDE6+0x2:0x682[p]>
        device_appearance, ad_src_advertise) != ls_err_none)
    {
        ReportPanic(app_panic_set_advert_data);
     67F:	0114      	ld         al, #+0x1
     680:	0300      	**prefx    0x3
     681:	B79C      	bsr        +0x2B7 <ReportPanic:0x938[p]>
    }

    /* Read tx power of the chip */
    if(LsReadTransmitPowerLevel(&tx_power_level) != ls_err_none)
     682:	E415      	ld         al, @0xFFE4 <register uy>
     683:	0334      	add        al, #+0x3
     684:	0700      	**prefx    0x7
     685:	989C      	bsr        +0x698 <LsReadTransmitPowerLevel:0xD1D[p]>
     686:	E199      	tst        @0xFFE1 <register al>
     687:	04F4      	beq        +0x4 <.LASFDE8+0x7:0x68B[p]>
    {
        /* Reading tx power failed */
        ReportPanic(app_panic_read_tx_pwr_level);
     688:	0614      	ld         al, #+0x6
     689:	0300      	**prefx    0x3
     68A:	AE9C      	bsr        +0x2AE <ReportPanic:0x938[p]>
    }

    /* Add the read tx power level to device_tx_power 
     * Tx power level value is of 1 byte 
     */
    device_tx_power[TX_POWER_VALUE_LENGTH - 1] = (uint8 )tx_power_level;
     68B:	0317      	ld         al, @(+0x3, y)
     68C:	0627      	st         al, @(+0x6, y)
     * layer 
     */
    length_added_to_adv += (TX_POWER_VALUE_LENGTH + 1);

    /* Add tx power value of device to the advertising data */
    if (LsStoreAdvScanData(TX_POWER_VALUE_LENGTH, device_tx_power, 
     68D:	0010      	ld         ah, #+0x0
     68E:	0023      	st         ah, @(0x0, y)
     68F:	0214      	ld         al, #+0x2
     690:	E411      	ld         ah, @0xFFE4 <register uy>
     691:	0530      	add        ah, #+0x5
     692:	0700      	**prefx    0x7
     693:	F19C      	bsr        +0x6F1 <LsStoreAdvScanData:0xD84[p]>
     694:	E199      	tst        @0xFFE1 <register al>
     695:	04F4      	beq        +0x4 <.LEFDE8+0x1:0x699[p]>
                          ad_src_advertise) != ls_err_none)
    {
        ReportPanic(app_panic_set_advert_data);
     696:	0114      	ld         al, #+0x1
     697:	0300      	**prefx    0x3
     698:	A09C      	bsr        +0x2A0 <ReportPanic:0x938[p]>
    uint8 *p_device_name = NULL;        /* Device name */
    uint16 device_name_adtype_len;      /* Device name length including AD Type
                                         */

    /* Read device name along with AD Type and its length */
    p_device_name = GapGetNameAndLength(&device_name_adtype_len);
     699:	E415      	ld         al, @0xFFE4 <register uy>
     69A:	0434      	add        al, #+0x4
     69B:	FE00      	**prefx    0xFE
     69C:	5F9C      	bsr        -0x1A1 <GapGetNameAndLength:0x4FB[p]>
     69D:	E119      	ld         x, @0xFFE1 <register al>

    /* Add complete device name to Advertisement data */
    p_device_name[0] = AD_TYPE_LOCAL_NAME_COMPLETE;
     69E:	0914      	ld         al, #+0x9
     69F:	0026      	st         al, @(0x0, x)
     */

    /* Check if Complete Device Name can fit in remaining advertisement 
     * data space 
     */
    if((device_name_adtype_len + 1) <= (MAX_ADV_DATA_LEN - adv_data_len))
     6A0:	0417      	ld         al, @(+0x4, y)
     6A1:	E111      	ld         ah, @0xFFE1 <register al>
     6A2:	0130      	add        ah, #+0x1
     6A3:	F921      	st         ah, @0xFFF9 <(scratchpad)>
     6A4:	1410      	ld         ah, #+0x14
     6A5:	2953      	sub        ah, @(+0x29, y)
     6A6:	F821      	st         ah, @0xFFF8 <(scratchpad)>
     6A7:	F911      	ld         ah, @0xFFF9 <(scratchpad)>
     6A8:	F881      	cmp        ah, @0xFFF8 <(scratchpad)>
     6A9:	022C      	bcz        +0x2 <.LEFDE8+0x13:0x6AB[p]>
     6AA:	04E0      	bra        +0x4 <.LEFDE8+0x16:0x6AE[p]>
    {
        /* Add Complete Device Name to Advertisement Data */
        if (LsStoreAdvScanData(device_name_adtype_len, p_device_name, 
     6AB:	0010      	ld         ah, #+0x0
     6AC:	0023      	st         ah, @(0x0, y)
     6AD:	0FE0      	bra        +0xF <.LEFDE8+0x24:0x6BC[p]>
            ReportPanic(app_panic_set_advert_data);
        }

    }
    /* Check if Complete Device Name can fit in Scan response message */
    else if((device_name_adtype_len + 1) <= (MAX_ADV_DATA_LEN - scan_data_len)) 
     6AE:	F911      	ld         ah, @0xFFF9 <(scratchpad)>
     6AF:	2080      	cmp        ah, #+0x20
     6B0:	04F8      	bcc        +0x4 <.LEFDE8+0x1C:0x6B4[p]>
    {
        /* Add Complete Device Name to Scan Response Data */
        if (LsStoreAdvScanData(device_name_adtype_len, p_device_name, 
     6B1:	0110      	ld         ah, #+0x1
     6B2:	0023      	st         ah, @(0x0, y)
     6B3:	15E0      	bra        +0x15 <L0+0x3:0x6C8[p]>

    }
    /* Check if Shortened Device Name can fit in remaining advertisement 
     * data space 
     */
    else if((MAX_ADV_DATA_LEN - adv_data_len) >=
     6B4:	F815      	ld         al, @0xFFF8 <(scratchpad)>
     6B5:	0984      	cmp        al, #+0x9
     6B6:	0D2C      	bcz        +0xD <.LEFDE8+0x2B:0x6C3[p]>
            (SHORTENED_DEV_NAME_LEN + 2)) /* Added 2 for Length and AD Type 
                                           * added by GAP layer
                                           */
    {
        /* Add shortened device name to Advertisement data */
        p_device_name[0] = AD_TYPE_LOCAL_NAME_SHORT;
     6B7:	0810      	ld         ah, #+0x8
     6B8:	0022      	st         ah, @(0x0, x)

       if (LsStoreAdvScanData(SHORTENED_DEV_NAME_LEN, p_device_name, 
     6B9:	0014      	ld         al, #+0x0
     6BA:	0027      	st         al, @(0x0, y)
     6BB:	0814      	ld         al, #+0x8
     6BC:	E311      	ld         ah, @0xFFE3 <register uxl>
     6BD:	0700      	**prefx    0x7
     6BE:	C69C      	bsr        +0x6C6 <LsStoreAdvScanData:0xD84[p]>
     6BF:	E199      	tst        @0xFFE1 <register al>
     6C0:	10F4      	beq        +0x10 <L0+0xB:0x6D0[p]>
                      ad_src_advertise) != ls_err_none)
        {
            ReportPanic(app_panic_set_advert_data);
     6C1:	0114      	ld         al, #+0x1
     6C2:	0CE0      	bra        +0xC <L0+0x9:0x6CE[p]>

    }
    else /* Add device name to remaining Scan response data space */
    {
        /* Add as much as can be stored in Scan Response data */
        p_device_name[0] = AD_TYPE_LOCAL_NAME_SHORT;
     6C3:	0810      	ld         ah, #+0x8
     6C4:	0022      	st         ah, @(0x0, x)

       if (LsStoreAdvScanData(MAX_ADV_DATA_LEN - scan_data_len, 
     6C5:	0114      	ld         al, #+0x1
     6C6:	0027      	st         al, @(0x0, y)
     6C7:	1F14      	ld         al, #+0x1F
     6C8:	E311      	ld         ah, @0xFFE3 <register uxl>
     6C9:	0700      	**prefx    0x7
     6CA:	BA9C      	bsr        +0x6BA <LsStoreAdvScanData:0xD84[p]>
     6CB:	E199      	tst        @0xFFE1 <register al>
     6CC:	04F4      	beq        +0x4 <L0+0xB:0x6D0[p]>
                                    p_device_name, 
                                    ad_src_scan_rsp) != ls_err_none)
        {
            ReportPanic(app_panic_set_scan_rsp_data);
     6CD:	0214      	ld         al, #+0x2
     6CE:	0200      	**prefx    0x2
     6CF:	699C      	bsr        +0x269 <ReportPanic:0x938[p]>
        ReportPanic(app_panic_set_advert_data);
    }

    addDeviceNameToAdvData(length_added_to_adv, 0);

}
     6D0:	300F      	leave      #+0x30

0x000006D1 <GattStartAdverts>:
 *
 *  RETURNS
 *      Nothing
 *----------------------------------------------------------------------------*/
extern void GattStartAdverts(TYPED_BD_ADDR_T *p_addr, bool fast_connection)
{
     6D1:	020B      	enter      #+0x2
     6D2:	0027      	st         al, @(0x0, y)
    uint16 connect_flags = L2CAP_CONNECTION_SLAVE_UNDIRECTED | 
                           L2CAP_OWN_ADDR_TYPE_PUBLIC;
#endif /* USE_STATIC_RANDOM_ADDRESS */

    /* Set advertisement parameters */
    gattSetAdvertParams(p_addr, fast_connection);
     6D3:	FF00      	**prefx    0xFF
     6D4:	369C      	bsr        -0xCA <gattSetAdvertParams:0x60A[p]>

    /* If white list is enabled, set the controller's advertising filter policy 
     * to "process scan and connection requests only from devices in the White 
     * List"
     */
    if(IsWhiteListEnabled() && !GattIsAddressResolvableRandom(p_addr))
     6D5:	0100      	**prefx    0x1
     6D6:	4B9C      	bsr        +0x14B <IsWhiteListEnabled:0x821[p]>
     6D7:	E199      	tst        @0xFFE1 <register al>
     6D8:	08F4      	beq        +0x8 <GattStartAdverts+0xF:0x6E0[p]>
     6D9:	0017      	ld         al, @(0x0, y)
     6DA:	FF00      	**prefx    0xFF
     6DB:	009C      	bsr        -0x100 <GattIsAddressResolvableRandom:0x5DB[p]>
     6DC:	E199      	tst        @0xFFE1 <register al>
     6DD:	03F0      	bne        +0x3 <GattStartAdverts+0xF:0x6E0[p]>
     6DE:	0310      	ld         ah, #+0x3
     6DF:	02E0      	bra        +0x2 <GattStartAdverts+0x10:0x6E1[p]>
     6E0:	0410      	ld         ah, #+0x4
                        L2CAP_OWN_ADDR_TYPE_PUBLIC;
#endif /* USE_STATIC_RANDOM_ADDRESS */
    }

    /* Start GATT connection in Slave role */
    GattConnectReq(NULL, connect_flags);
     6E1:	0014      	ld         al, #+0x0
     6E2:	0100      	**prefx    0x1
     6E3:	A800      	**prefx    0xA8
     6E4:	7B9C      	bsr        +0xA87B <GattConnectReq:0xAF5F[p]>

     /* Start advertisement timer */
    if(g_gatt_data.advert_timer_value)
     6E5:	3E00      	**prefx    0x3E
     6E6:	DF11      	ld         ah, @0x3DDF <g_gatt_data>
     6E7:	3E00      	**prefx    0x3E
     6E8:	E019      	ld         x, @0x3DE0 <g_gatt_data+0x1>
     6E9:	E015      	ld         al, @0xFFE0 <register ah>
     6EA:	E3B5      	or         al, @0xFFE3 <register uxl>
     6EB:	04F4      	beq        +0x4 <GattStartAdverts+0x1E:0x6EF[p]>
    {
        StartAdvertTimer(g_gatt_data.advert_timer_value);
     6EC:	E315      	ld         al, @0xFFE3 <register uxl>
     6ED:	0100      	**prefx    0x1
     6EE:	569C      	bsr        +0x156 <StartAdvertTimer:0x844[p]>
    }
}
     6EF:	020F      	leave      #+0x2

0x000006F0 <GattTriggerFastAdverts>:
 *
 *  RETURNS
 *      Nothing
 *----------------------------------------------------------------------------*/
extern void GattTriggerFastAdverts(TYPED_BD_ADDR_T *p_addr)
{
     6F0:	020B      	enter      #+0x2
     6F1:	0027      	st         al, @(0x0, y)
    if(IsDeviceBonded())
     6F2:	0100      	**prefx    0x1
     6F3:	319C      	bsr        +0x131 <IsDeviceBonded:0x824[p]>
     6F4:	E199      	tst        @0xFFE1 <register al>
     6F5:	08F4      	beq        +0x8 <GattTriggerFastAdverts+0xD:0x6FD[p]>
    {
        g_gatt_data.advert_timer_value = BONDED_DEVICE_ADVERT_TIMEOUT_VALUE;
     6F6:	0100      	**prefx    0x1
     6F7:	9814      	ld         al, #+0x98
     6F8:	3E00      	**prefx    0x3E
     6F9:	DF25      	st         al, @0x3DDF <g_gatt_data>
     6FA:	9700      	**prefx    0x97
     6FB:	8014      	ld         al, #-0x6980
     6FC:	07E0      	bra        +0x7 <GattTriggerFastAdverts+0x13:0x703[p]>
    }
    else
    {
        g_gatt_data.advert_timer_value = FAST_CONNECTION_ADVERT_TIMEOUT_VALUE;
     6FD:	0200      	**prefx    0x2
     6FE:	C914      	ld         al, #+0x1C9
     6FF:	3E00      	**prefx    0x3E
     700:	DF25      	st         al, @0x3DDF <g_gatt_data>
     701:	C400      	**prefx    0xC4
     702:	8014      	ld         al, #-0x3C80
     703:	3E00      	**prefx    0x3E
     704:	E025      	st         al, @0x3DE0 <g_gatt_data+0x1>
    }

    /* Trigger fast connections */
    GattStartAdverts(p_addr, TRUE);
     705:	0017      	ld         al, @(0x0, y)
     706:	0110      	ld         ah, #+0x1
     707:	CA9C      	bsr        -0x36 <GattStartAdverts:0x6D1[p]>
}
     708:	020F      	leave      #+0x2

0x00000709 <HandleAccessWrite>:
 *
 *  RETURNS
 *      Nothing
 *----------------------------------------------------------------------------*/
extern void HandleAccessWrite(GATT_ACCESS_IND_T *p_ind)
{
     709:	050B      	enter      #+0x5
     70A:	0327      	st         al, @(+0x3, y)
    /* For the received attribute handle, check all the services that support 
     * attribute 'Write' operation handled by application.
     */
    /* More services may be added here to support their write operations */
    if(GapCheckHandleRange(p_ind->handle))
     70B:	E119      	ld         x, @0xFFE1 <register al>
     70C:	0216      	ld         al, @(+0x2, x)
     70D:	FE00      	**prefx    0xFE
     70E:	E69C      	bsr        -0x21A <GapCheckHandleRange:0x4F4[p]>
     70F:	E199      	tst        @0xFFE1 <register al>
     710:	05F4      	beq        +0x5 <HandleAccessWrite+0xC:0x715[p]>
    {
        /* Attribute handle belongs to GAP service */
        GapHandleAccessWrite(p_ind);
     711:	0317      	ld         al, @(+0x3, y)
     712:	FE00      	**prefx    0xFE
     713:	6E9C      	bsr        -0x192 <GapHandleAccessWrite:0x581[p]>
     714:	21E0      	bra        +0x21 <HandleAccessWrite+0x2C:0x735[p]>
    }
    else if(BatteryCheckHandleRange(p_ind->handle))
     715:	031B      	ld         x, @(+0x3, y)
     716:	0216      	ld         al, @(+0x2, x)
     717:	FD00      	**prefx    0xFD
     718:	9D9C      	bsr        -0x363 <BatteryCheckHandleRange:0x3B5[p]>
     719:	E199      	tst        @0xFFE1 <register al>
     71A:	05F4      	beq        +0x5 <HandleAccessWrite+0x16:0x71F[p]>
    {
        /* Attribute handle belongs to BATTERY service */
        BatteryHandleAccessWrite(p_ind);
     71B:	0317      	ld         al, @(+0x3, y)
     71C:	FD00      	**prefx    0xFD
     71D:	119C      	bsr        -0x2EF <BatteryHandleAccessWrite:0x42E[p]>
     71E:	17E0      	bra        +0x17 <HandleAccessWrite+0x2C:0x735[p]>
    } else if (AuthCheckHandleRange(p_ind->handle)) {
     71F:	031B      	ld         x, @(+0x3, y)
     720:	0216      	ld         al, @(+0x2, x)
     721:	0500      	**prefx    0x5
     722:	EC9C      	bsr        +0x4EC <AuthCheckHandleRange:0xC0E[p]>
     723:	E199      	tst        @0xFFE1 <register al>
     724:	05F4      	beq        +0x5 <HandleAccessWrite+0x20:0x729[p]>
        /* attribute handle belongs to auth service */
        AuthHandleAccessWrite(p_ind);
     725:	0317      	ld         al, @(+0x3, y)
     726:	0500      	**prefx    0x5
     727:	109C      	bsr        +0x510 <AuthHandleAccessWrite:0xC37[p]>
     728:	0DE0      	bra        +0xD <HandleAccessWrite+0x2C:0x735[p]>
    else
    {
        /* Application doesn't support 'Write' operation on received  attribute
         * handle, so return 'gatt_status_write_not_permitted' status
         */
        GattAccessRsp(p_ind->cid, p_ind->handle, 
     729:	031B      	ld         x, @(+0x3, y)
     72A:	0116      	ld         al, @(+0x1, x)
     72B:	0212      	ld         ah, @(+0x2, x)
     72C:	0A00      	**prefx    0xA
     72D:	0318      	ld         x, #+0xA03
     72E:	002B      	st         x, @(0x0, y)
     72F:	0018      	ld         x, #+0x0
     730:	012B      	st         x, @(+0x1, y)
     731:	022B      	st         x, @(+0x2, y)
     732:	0100      	**prefx    0x1
     733:	A900      	**prefx    0xA9
     734:	4A9C      	bsr        +0xA94A <GattAccessRsp:0xB07E[p]>
                      gatt_status_write_not_permitted,
                      0, NULL);
    }

}
     735:	050F      	leave      #+0x5

0x00000736 <HandleAccessRead>:
 *
 *  RETURNS
 *      Nothing
 *----------------------------------------------------------------------------*/
extern void HandleAccessRead(GATT_ACCESS_IND_T *p_ind)
{
     736:	050B      	enter      #+0x5
     737:	0327      	st         al, @(+0x3, y)
    /* For the received attribute handle, check all the services that support 
     * attribute 'Read' operation handled by application.
     */
    /* More services may be added here to support their read operations */
    if(GapCheckHandleRange(p_ind->handle))
     738:	E119      	ld         x, @0xFFE1 <register al>
     739:	0216      	ld         al, @(+0x2, x)
     73A:	FE00      	**prefx    0xFE
     73B:	B99C      	bsr        -0x247 <GapCheckHandleRange:0x4F4[p]>
     73C:	E199      	tst        @0xFFE1 <register al>
     73D:	05F4      	beq        +0x5 <HandleAccessRead+0xC:0x742[p]>
    {
        /* Attribute handle belongs to the GAP service */
        GapHandleAccessRead(p_ind);
     73E:	0317      	ld         al, @(+0x3, y)
     73F:	FE00      	**prefx    0xFE
     740:	189C      	bsr        -0x1E8 <GapHandleAccessRead:0x558[p]>
     741:	2BE0      	bra        +0x2B <L0+0x2:0x76C[p]>
    }
    else if(DeviceInfoCheckHandleRange(p_ind->handle))
     742:	031B      	ld         x, @(+0x3, y)
     743:	0216      	ld         al, @(+0x2, x)
     744:	FD00      	**prefx    0xFD
     745:	5C9C      	bsr        -0x2A4 <DeviceInfoCheckHandleRange:0x4A1[p]>
     746:	E199      	tst        @0xFFE1 <register al>
     747:	05F4      	beq        +0x5 <HandleAccessRead+0x16:0x74C[p]>
    {
        /* Attribute handle belongs to the DEVICE INFORMATION service */
        DeviceInfoHandleAccessRead(p_ind);
     748:	0317      	ld         al, @(+0x3, y)
     749:	FD00      	**prefx    0xFD
     74A:	5E9C      	bsr        -0x2A2 <DeviceInfoHandleAccessRead:0x4A8[p]>
     74B:	21E0      	bra        +0x21 <L0+0x2:0x76C[p]>
    }
    else if(BatteryCheckHandleRange(p_ind->handle))
     74C:	031B      	ld         x, @(+0x3, y)
     74D:	0216      	ld         al, @(+0x2, x)
     74E:	FC00      	**prefx    0xFC
     74F:	669C      	bsr        -0x39A <BatteryCheckHandleRange:0x3B5[p]>
     750:	E199      	tst        @0xFFE1 <register al>
     751:	05F4      	beq        +0x5 <HandleAccessRead+0x20:0x756[p]>
    {
        /* Attribute handle belongs to BATTERY service */
        BatteryHandleAccessRead(p_ind);
     752:	0317      	ld         al, @(+0x3, y)
     753:	FD00      	**prefx    0xFD
     754:	199C      	bsr        -0x2E7 <BatteryHandleAccessRead:0x46D[p]>
     755:	17E0      	bra        +0x17 <L0+0x2:0x76C[p]>
    } else if (AuthCheckHandleRange(p_ind->handle)) {
     756:	031B      	ld         x, @(+0x3, y)
     757:	0216      	ld         al, @(+0x2, x)
     758:	0500      	**prefx    0x5
     759:	B59C      	bsr        +0x4B5 <AuthCheckHandleRange:0xC0E[p]>
     75A:	E199      	tst        @0xFFE1 <register al>
     75B:	05F4      	beq        +0x5 <UART_RATE_460K8:0x760[p]>
        /* attribute handle belongs to authentication service */
        AuthHandleAccessRead(p_ind);
     75C:	0317      	ld         al, @(+0x3, y)
     75D:	0500      	**prefx    0x5
     75E:	B69C      	bsr        +0x4B6 <AuthHandleAccessRead:0xC14[p]>
     75F:	0DE0      	bra        +0xD <L0+0x2:0x76C[p]>
    else
    {
        /* Application doesn't support 'Read' operation on received attribute
         * handle, so return 'gatt_status_read_not_permitted' status.
         */
        GattAccessRsp(p_ind->cid, p_ind->handle, 
     760:	031B      	ld         x, @(+0x3, y)
     761:	0116      	ld         al, @(+0x1, x)
     762:	0212      	ld         ah, @(+0x2, x)
     763:	0A00      	**prefx    0xA
     764:	0218      	ld         x, #+0xA02
     765:	002B      	st         x, @(0x0, y)
     766:	0018      	ld         x, #+0x0
     767:	012B      	st         x, @(+0x1, y)
     768:	022B      	st         x, @(+0x2, y)
     769:	0100      	**prefx    0x1
     76A:	A900      	**prefx    0xA9
     76B:	139C      	bsr        +0xA913 <GattAccessRsp:0xB07E[p]>
                      gatt_status_read_not_permitted,
                      0, NULL);
    }

}
     76C:	050F      	leave      #+0x5

0x0000076D <HwDataInit>:
 *      Nothing
 *----------------------------------------------------------------------------*/
extern void HwDataInit(void)
{
    /* Initialise button press timer */
    g_app_hw_data.button_press_tid = TIMER_INVALID;
     76D:	0014      	ld         al, #+0x0
     76E:	3E00      	**prefx    0x3E
     76F:	E125      	st         al, @0x3DE1 <g_app_hw_data>

}
     770:	00E2      	bra        0x0, x

0x00000771 <HwDataReset>:
 *
 *  RETURNS
 *      Nothing
 *----------------------------------------------------------------------------*/
extern void HwDataReset(void)
{
     771:	010B      	enter      #+0x1
    /* Delete button press timer */
    if (g_app_hw_data.button_press_tid != TIMER_INVALID)
     772:	3E00      	**prefx    0x3E
     773:	E115      	ld         al, @0x3DE1 <g_app_hw_data>
     774:	07F4      	beq        +0x7 <HwDataReset+0xA:0x77B[p]>
    {
        TimerDelete(g_app_hw_data.button_press_tid);
     775:	0100      	**prefx    0x1
     776:	D900      	**prefx    0xD9
     777:	C89C      	bsr        +0xD8C8 <TimerDelete:0xE03F[p]>
        g_app_hw_data.button_press_tid = TIMER_INVALID;
     778:	0014      	ld         al, #+0x0
     779:	3E00      	**prefx    0x3E
     77A:	E125      	st         al, @0x3DE1 <g_app_hw_data>
    }

}
     77B:	010F      	leave      #+0x1

0x0000077C <HandlePIOChangedEvent>:
 *
 *  RETURNS
 *      Nothing
 *----------------------------------------------------------------------------*/
extern void HandlePIOChangedEvent(pio_changed_data *pio_data)
{
     77C:	030B      	enter      #+0x3
     77D:	E119      	ld         x, @0xFFE1 <register al>

    if(pio_data->pio_cause & BUTTON_PIO_MASK)
     77E:	0316      	ld         al, @(+0x3, x)
     77F:	08C4      	and        al, #0x8
     780:	26F4      	beq        +0x26 <HandlePIOChangedEvent+0x2A:0x7A6[p]>
    {
        /* PIO changed */
        uint32 pios = PioGets();
     781:	0100      	**prefx    0x1
     782:	EE00      	**prefx    0xEE
     783:	4C9C      	bsr        +0xEE4C <PioGets:0xF5CF[p]>

        if(!(pios & BUTTON_PIO_MASK))
     784:	08C4      	and        al, #0x8
     785:	3E00      	**prefx    0x3E
     786:	E111      	ld         ah, @0x3DE1 <g_app_hw_data>
     787:	E199      	tst        @0xFFE1 <register al>
     788:	13F0      	bne        +0x13 <HandlePIOChangedEvent+0x1F:0x79B[p]>
            /* Start a timer for EXTRA_LONG_BUTTON_PRESS_TIMER seconds. If the
             * timer expires before the button is released an extra long button
             * press is detected. If the button is released before the timer
             * expires a short button press is detected.
             */
            TimerDelete(g_app_hw_data.button_press_tid);
     789:	E015      	ld         al, @0xFFE0 <register ah>
     78A:	0100      	**prefx    0x1
     78B:	D900      	**prefx    0xD9
     78C:	B39C      	bsr        +0xD8B3 <TimerDelete:0xE03F[p]>

            g_app_hw_data.button_press_tid =
     78D:	0114      	ld         al, #+0x1
     78E:	0027      	st         al, @(0x0, y)
     78F:	0800      	**prefx    0x8
     790:	A714      	ld         al, #+0x7A7
     791:	0127      	st         al, @(+0x1, y)
     792:	3D10      	ld         ah, #+0x3D
     793:	0900      	**prefx    0x9
     794:	0014      	ld         al, #+0x900
     795:	0100      	**prefx    0x1
     796:	D900      	**prefx    0xD9
     797:	649C      	bsr        +0xD964 <TimerCreate:0xE0FB[p]>
     798:	3E00      	**prefx    0x3E
     799:	E125      	st         al, @0x3DE1 <g_app_hw_data>
     79A:	0CE0      	bra        +0xC <HandlePIOChangedEvent+0x2A:0x7A6[p]>
                                           TRUE, handleExtraLongButtonPress);
        }
        else
        {
            /* This event comes when a button is released. */
            if(g_app_hw_data.button_press_tid != TIMER_INVALID)
     79B:	E099      	tst        @0xFFE0 <register ah>
     79C:	0AF4      	beq        +0xA <HandlePIOChangedEvent+0x2A:0x7A6[p]>
            {
                /* Timer was already running. This means it was a short button
                 * press.
                 */
                TimerDelete(g_app_hw_data.button_press_tid);
     79D:	E015      	ld         al, @0xFFE0 <register ah>
     79E:	0100      	**prefx    0x1
     79F:	D900      	**prefx    0xD9
     7A0:	9F9C      	bsr        +0xD89F <TimerDelete:0xE03F[p]>
                g_app_hw_data.button_press_tid = TIMER_INVALID;
     7A1:	0014      	ld         al, #+0x0
     7A2:	3E00      	**prefx    0x3E
     7A3:	E125      	st         al, @0x3DE1 <g_app_hw_data>

                /* Indicate short button press using short beep */
                //SoundBuzzer(buzzer_beep_short);

                HandleShortButtonPress();
     7A4:	0200      	**prefx    0x2
     7A5:	589C      	bsr        +0x258 <HandleShortButtonPress:0x9FD[p]>
            }
        }
    }
}
     7A6:	030F      	leave      #+0x3

0x000007A7 <handleExtraLongButtonPress>:
 *  RETURNS
 *      Nothing
 *----------------------------------------------------------------------------*/
static void handleExtraLongButtonPress(timer_id tid)
{
    if(tid == g_app_hw_data.button_press_tid)
     7A7:	3E00      	**prefx    0x3E
     7A8:	E185      	cmp        al, @0x3DE1 <g_app_hw_data>
     7A9:	06F0      	bne        +0x6 <handleExtraLongButtonPress+0x8:0x7AF[p]>
    {
        /* Re-initialise button press timer */
        g_app_hw_data.button_press_tid = TIMER_INVALID;
     7AA:	0014      	ld         al, #+0x0
     7AB:	3E00      	**prefx    0x3E
     7AC:	E125      	st         al, @0x3DE1 <g_app_hw_data>

        /* Sound three beeps to indicate pairing removal to user */
        // SoundBuzzer(buzzer_beep_thrice);

        /* Handle pairing removal */
        HandlePairingRemoval();
     7AD:	0200      	**prefx    0x2
     7AE:	1FE0      	bra        +0x21F <HandlePairingRemoval:0x9CD[p]>
     7AF:	00E2      	bra        0x0, x

0x000007B0 <InitHardware>:
 *
 *  RETURNS
 *      Nothing
 *----------------------------------------------------------------------------*/
extern void InitHardware(void)
{
     7B0:	030B      	enter      #+0x3
    /* Setup PIOs
     * PIO3 - Button
     * PIO9:11 - LEDs
     */
    /* First, set strong pulldowns as default. */
    PioSetModes(0xFFFFFFFFUL, pio_mode_user);
     7B1:	0014      	ld         al, #+0x0
     7B2:	0027      	st         al, @(0x0, y)
     7B3:	FF10      	ld         ah, #-0x1
     7B4:	FF14      	ld         al, #-0x1
     7B5:	0100      	**prefx    0x1
     7B6:	EF00      	**prefx    0xEF
     7B7:	B09C      	bsr        +0xEEB0 <PioSetModes:0xF667[p]>
    PioSetDirs(0xFFFFFFFFUL, FALSE);
     7B8:	0014      	ld         al, #+0x0
     7B9:	0027      	st         al, @(0x0, y)
     7BA:	0127      	st         al, @(+0x1, y)
     7BB:	FF10      	ld         ah, #-0x1
     7BC:	FF14      	ld         al, #-0x1
     7BD:	0100      	**prefx    0x1
     7BE:	F000      	**prefx    0xF0
     7BF:	9B9C      	bsr        +0xEF9B <PioSetDirs:0xF75A[p]>
    PioSetPullModes(0xFFFFFFFFUL, pio_mode_strong_pull_down);
     7C0:	0514      	ld         al, #+0x5
     7C1:	0027      	st         al, @(0x0, y)
     7C2:	FF10      	ld         ah, #-0x1
     7C3:	FF14      	ld         al, #-0x1
     7C4:	0100      	**prefx    0x1
     7C5:	EE00      	**prefx    0xEE
     7C6:	469C      	bsr        +0xEE46 <PioSetPullModes:0xF60C[p]>

    /* Set the Button PIO direction as input */
    PioSetDir(BUTTON_PIO, PIO_DIRECTION_INPUT);
     7C7:	0314      	ld         al, #+0x3
     7C8:	0010      	ld         ah, #+0x0
     7C9:	0100      	**prefx    0x1
     7CA:	F000      	**prefx    0xF0
     7CB:	A99C      	bsr        +0xEFA9 <PioSetDir:0xF774[p]>

    /* Pull up the PIO */
    PioSetPullModes(BUTTON_PIO_MASK, pio_mode_strong_pull_up);
     7CC:	0714      	ld         al, #+0x7
     7CD:	0027      	st         al, @(0x0, y)
     7CE:	0010      	ld         ah, #+0x0
     7CF:	0814      	ld         al, #+0x8
     7D0:	0100      	**prefx    0x1
     7D1:	EE00      	**prefx    0xEE
     7D2:	3A9C      	bsr        +0xEE3A <PioSetPullModes:0xF60C[p]>

    /* Request an event when the button PIO changes state */
    PioSetEventMask(BUTTON_PIO_MASK, pio_event_mode_both);
     7D3:	0314      	ld         al, #+0x3
     7D4:	0027      	st         al, @(0x0, y)
     7D5:	0010      	ld         ah, #+0x0
     7D6:	0814      	ld         al, #+0x8
     7D7:	0100      	**prefx    0x1
     7D8:	EF00      	**prefx    0xEF
     7D9:	409C      	bsr        +0xEF40 <PioSetEventMask:0xF719[p]>

    /* Set LEDs as outputs, default high (LED off) */
    //PioSetDirs(0x00000E00UL, TRUE);     // LEDs are set to output high (off)
    //PioSets(0x00000E00UL, 0x00000E00UL);
    //PioSetPullModes(0x00000E00UL, pio_mode_no_pulls);
    initPWMs();
     7DA:	0500      	**prefx    0x5
     7DB:	139C      	bsr        +0x513 <initPWMs:0xCEE[p]>
    
    /* Save power by changing the I2C pull mode to pull down.*/
    PioSetI2CPullMode(pio_i2c_pull_mode_strong_pull_down);
     7DC:	0514      	ld         al, #+0x5
     7DD:	0100      	**prefx    0x1
     7DE:	F000      	**prefx    0xF0
     7DF:	349C      	bsr        +0xF034 <PioSetI2CPullMode:0xF813[p]>

}
     7E0:	030F      	leave      #+0x3

0x000007E1 <IndicateUnhandledState>:

extern void IndicateConnection(void) {
    SetLEDColor(0, 400, 0);     // green
}

extern void IndicateUnhandledState(void) {
     7E1:	020B      	enter      #+0x2
    SetLEDColor(5, 0, 0);
     7E2:	0014      	ld         al, #+0x0
     7E3:	0027      	st         al, @(0x0, y)
     7E4:	0514      	ld         al, #+0x5
     7E5:	0010      	ld         ah, #+0x0
     7E6:	0500      	**prefx    0x5
     7E7:	819C      	bsr        +0x481 <SetLEDColor:0xC68[p]>
}
     7E8:	020F      	leave      #+0x2

0x000007E9 <IndicateConnection>:

extern void IndicateAdvertisingServer(void) {
    SetLEDColor(20, 20, 0);     // sort of orange
}

extern void IndicateConnection(void) {
     7E9:	020B      	enter      #+0x2
    SetLEDColor(0, 400, 0);     // green
     7EA:	0014      	ld         al, #+0x0
     7EB:	0027      	st         al, @(0x0, y)
     7EC:	0200      	**prefx    0x2
     7ED:	9010      	ld         ah, #+0x190
     7EE:	0400      	**prefx    0x4
     7EF:	799C      	bsr        +0x479 <SetLEDColor:0xC68[p]>
}
     7F0:	020F      	leave      #+0x2

0x000007F1 <IndicateAdvertisingServer>:

/*============================================================================*
 *  Public Function Implementations
 *============================================================================*/

extern void IndicateAdvertisingServer(void) {
     7F1:	020B      	enter      #+0x2
    SetLEDColor(20, 20, 0);     // sort of orange
     7F2:	0014      	ld         al, #+0x0
     7F3:	0027      	st         al, @(0x0, y)
     7F4:	1414      	ld         al, #+0x14
     7F5:	1410      	ld         ah, #+0x14
     7F6:	0400      	**prefx    0x4
     7F7:	719C      	bsr        +0x471 <SetLEDColor:0xC68[p]>
}
     7F8:	020F      	leave      #+0x2

0x000007F9 <Nvm_Disable>:
 *
 *  RETURNS
 *      Nothing
 *----------------------------------------------------------------------------*/
void Nvm_Disable(void)
{
     7F9:	010B      	enter      #+0x1
    /* Disable the NVM. */
    NvmDisable();
     7FA:	0100      	**prefx    0x1
     7FB:	E700      	**prefx    0xE7
     7FC:	389C      	bsr        +0xE738 <NvmDisable:0xEF34[p]>

    /* Pull down the I2C lines to save power. */
    PioSetI2CPullMode(pio_i2c_pull_mode_strong_pull_down);
     7FD:	0514      	ld         al, #+0x5
     7FE:	0100      	**prefx    0x1
     7FF:	F000      	**prefx    0xF0
     800:	139C      	bsr        +0xF013 <PioSetI2CPullMode:0xF813[p]>
}
     801:	010F      	leave      #+0x1

0x00000802 <Nvm_Write>:
 *
 *  RETURNS
 *      Nothing
 *----------------------------------------------------------------------------*/
void Nvm_Write(uint16 *buffer, uint16 length, uint16 offset)
{
     802:	030B      	enter      #+0x3
    sys_status result;          /* Function status */

    /* Write to NVM. Firmware re-enables the NVM if it is disabled */
    result = NvmWrite(buffer, length, offset);
     803:	031B      	ld         x, @(+0x3, y)
     804:	002B      	st         x, @(0x0, y)
     805:	0100      	**prefx    0x1
     806:	E700      	**prefx    0xE7
     807:	5D9C      	bsr        +0xE75D <NvmWrite:0xEF64[p]>
     808:	0127      	st         al, @(+0x1, y)

    /* Disable NVM to save power after write operation */
    Nvm_Disable();
     809:	F09C      	bsr        -0x10 <Nvm_Disable:0x7F9[p]>

    /* Report panic if NVM write is not successful */
    if(sys_status_success != result)
     80A:	019B      	tst        @(+0x1, y)
     80B:	04F4      	beq        +0x4 <Nvm_Write+0xD:0x80F[p]>
    {
        ReportPanic(app_panic_nvm_write);
     80C:	0514      	ld         al, #+0x5
     80D:	0100      	**prefx    0x1
     80E:	2A9C      	bsr        +0x12A <ReportPanic:0x938[p]>
    }
}
     80F:	030F      	leave      #+0x3

0x00000810 <Nvm_Read>:
 *
 *  RETURNS
 *      Nothing
 *----------------------------------------------------------------------------*/
void Nvm_Read(uint16 *buffer, uint16 length, uint16 offset)
{
     810:	030B      	enter      #+0x3
    sys_status result;

    /* Read from NVM. Firmware re-enables the NVM if it is disabled */
    result = NvmRead(buffer, length, offset);
     811:	031B      	ld         x, @(+0x3, y)
     812:	002B      	st         x, @(0x0, y)
     813:	0100      	**prefx    0x1
     814:	E700      	**prefx    0xE7
     815:	759C      	bsr        +0xE775 <NvmRead:0xEF8A[p]>
     816:	0127      	st         al, @(+0x1, y)

    /* Disable NVM to save power after read operation */
    Nvm_Disable();
     817:	E29C      	bsr        -0x1E <Nvm_Disable:0x7F9[p]>

    /* Report panic if NVM read is not successful */
    if(sys_status_success != result)
     818:	019B      	tst        @(+0x1, y)
     819:	04F4      	beq        +0x4 <Nvm_Read+0xD:0x81D[p]>
    {
        ReportPanic(app_panic_nvm_read);
     81A:	0414      	ld         al, #+0x4
     81B:	0100      	**prefx    0x1
     81C:	1C9C      	bsr        +0x11C <ReportPanic:0x938[p]>
    }
}
     81D:	030F      	leave      #+0x3

0x0000081E <GetState>:
 *      Current application state
 *----------------------------------------------------------------------------*/
extern app_state GetState(void)
{
    return g_app_data.state;
}
     81E:	3E00      	**prefx    0x3E
     81F:	0015      	ld         al, @0x3E00 <g_app_data>
     820:	00E2      	bra        0x0, x

0x00000821 <IsWhiteListEnabled>:
 *      TRUE if white list is enabled, FALSE otherwise.
 *----------------------------------------------------------------------------*/
extern bool IsWhiteListEnabled(void)
{
    return g_app_data.enable_white_list;
}
     821:	3E00      	**prefx    0x3E
     822:	1A15      	ld         al, @0x3E1A <g_app_data+0x1A>
     823:	00E2      	bra        0x0, x

0x00000824 <IsDeviceBonded>:
 *      TRUE if device is bonded, FALSE if not.
 *----------------------------------------------------------------------------*/
extern bool IsDeviceBonded(void)
{
    return g_app_data.bonded;
}
     824:	3E00      	**prefx    0x3E
     825:	0715      	ld         al, @0x3E07 <g_app_data+0x7>
     826:	00E2      	bra        0x0, x

0x00000827 <AppPowerOnReset>:
extern void AppPowerOnReset(void)
{
    /* Code that is only executed after a power-on reset or firmware panic
     * should be implemented here - e.g. configuring application constants
     */
}
     827:	00E2      	bra        0x0, x

0x00000828 <appStartConnUpdateTimer>:
 *
 *  RETURNS
 *      Nothing
 *----------------------------------------------------------------------------*/
static void appStartConnUpdateTimer(void)
{
     828:	030B      	enter      #+0x3
    if(g_app_data.conn_interval < PREFERRED_MIN_CON_INTERVAL ||
     829:	3E00      	**prefx    0x3E
     82A:	1B15      	ld         al, @0x3E1B <g_app_data+0x1B>
     82B:	0200      	**prefx    0x2
     82C:	9084      	cmp        al, #+0x190
     82D:	05F0      	bne        +0x5 <appStartConnUpdateTimer+0xA:0x832[p]>
     82E:	3E00      	**prefx    0x3E
     82F:	1C15      	ld         al, @0x3E1C <g_app_data+0x1C>
     830:	0484      	cmp        al, #+0x4
     831:	12F8      	bcc        +0x12 <appStartConnUpdateTimer+0x1B:0x843[p]>
       || g_app_data.conn_latency < PREFERRED_SLAVE_LATENCY
#endif
      )
    {
        /* Set the number of connection parameter update attempts to zero */
        g_app_data.num_conn_update_req = 0;
     832:	0014      	ld         al, #+0x0
     833:	3E00      	**prefx    0x3E
     834:	1725      	st         al, @0x3E17 <g_app_data+0x17>

        /* Start timer to trigger connection parameter update procedure */
        g_app_data.con_param_update_tid = TimerCreate(
     835:	0114      	ld         al, #+0x1
     836:	0027      	st         al, @(0x0, y)
     837:	0900      	**prefx    0x9
     838:	3B14      	ld         al, #+0x93B
     839:	0127      	st         al, @(+0x1, y)
     83A:	0200      	**prefx    0x2
     83B:	C910      	ld         ah, #+0x1C9
     83C:	C400      	**prefx    0xC4
     83D:	8014      	ld         al, #-0x3C80
     83E:	0100      	**prefx    0x1
     83F:	D900      	**prefx    0xD9
     840:	BB9C      	bsr        +0xD8BB <TimerCreate:0xE0FB[p]>
     841:	3E00      	**prefx    0x3E
     842:	0E25      	st         al, @0x3E0E <g_app_data+0xE>
                            GAP_CONN_PARAM_TIMEOUT,
                            TRUE, requestConnParamUpdate);

    }
}
     843:	030F      	leave      #+0x3

0x00000844 <StartAdvertTimer>:
 *
 *  RETURNS
 *      Nothing
 *----------------------------------------------------------------------------*/
extern void StartAdvertTimer(uint32 interval)
{
     844:	050B      	enter      #+0x5
     845:	0327      	st         al, @(+0x3, y)
     846:	0223      	st         ah, @(+0x2, y)
    /* Cancel existing timer, if valid */
    if (g_app_data.app_tid != TIMER_INVALID)
     847:	3E00      	**prefx    0x3E
     848:	1915      	ld         al, @0x3E19 <g_app_data+0x19>
     849:	04F4      	beq        +0x4 <StartAdvertTimer+0x9:0x84D[p]>
    {
        TimerDelete(g_app_data.app_tid);
     84A:	0100      	**prefx    0x1
     84B:	D800      	**prefx    0xD8
     84C:	F39C      	bsr        +0xD7F3 <TimerDelete:0xE03F[p]>
    }

    /* Start advertisement timer  */
    g_app_data.app_tid = TimerCreate(interval, TRUE, appAdvertTimerHandler);
     84D:	0114      	ld         al, #+0x1
     84E:	0027      	st         al, @(0x0, y)
     84F:	0900      	**prefx    0x9
     850:	2E14      	ld         al, #+0x92E
     851:	0127      	st         al, @(+0x1, y)
     852:	0317      	ld         al, @(+0x3, y)
     853:	0213      	ld         ah, @(+0x2, y)
     854:	0100      	**prefx    0x1
     855:	D900      	**prefx    0xD9
     856:	A59C      	bsr        +0xD8A5 <TimerCreate:0xE0FB[p]>
     857:	3E00      	**prefx    0x3E
     858:	1925      	st         al, @0x3E19 <g_app_data+0x19>
}
     859:	050F      	leave      #+0x5

0x0000085A <appDataInit>:
 *
 *  RETURNS
 *      Nothing
 *----------------------------------------------------------------------------*/
static void appDataInit(void)
{
     85A:	010B      	enter      #+0x1
    /* Initialise general application timer */
    if (g_app_data.app_tid != TIMER_INVALID)
     85B:	3E00      	**prefx    0x3E
     85C:	1915      	ld         al, @0x3E19 <g_app_data+0x19>
     85D:	07F4      	beq        +0x7 <appDataInit+0xA:0x864[p]>
    {
        TimerDelete(g_app_data.app_tid);
     85E:	0100      	**prefx    0x1
     85F:	D800      	**prefx    0xD8
     860:	DF9C      	bsr        +0xD7DF <TimerDelete:0xE03F[p]>
        g_app_data.app_tid = TIMER_INVALID;
     861:	0014      	ld         al, #+0x0
     862:	3E00      	**prefx    0x3E
     863:	1925      	st         al, @0x3E19 <g_app_data+0x19>
    }

    /* Reset the pairing button press flag */
    g_app_data.pairing_button_pressed = FALSE;
     864:	0014      	ld         al, #+0x0
     865:	3E00      	**prefx    0x3E
     866:	1825      	st         al, @0x3E18 <g_app_data+0x18>

    /* Initialise the connection parameter update timer */
    if (g_app_data.con_param_update_tid != TIMER_INVALID)
     867:	3E00      	**prefx    0x3E
     868:	0E15      	ld         al, @0x3E0E <g_app_data+0xE>
     869:	07F4      	beq        +0x7 <appDataInit+0x16:0x870[p]>
    {
        TimerDelete(g_app_data.con_param_update_tid);
     86A:	0100      	**prefx    0x1
     86B:	D800      	**prefx    0xD8
     86C:	D39C      	bsr        +0xD7D3 <TimerDelete:0xE03F[p]>
        g_app_data.con_param_update_tid = TIMER_INVALID;
     86D:	0014      	ld         al, #+0x0
     86E:	3E00      	**prefx    0x3E
     86F:	0E25      	st         al, @0x3E0E <g_app_data+0xE>
    }

    /* Initialise the connected client ID */
    g_app_data.st_ucid = GATT_INVALID_UCID;
     870:	FF14      	ld         al, #-0x1
     871:	3E00      	**prefx    0x3E
     872:	0625      	st         al, @0x3E06 <g_app_data+0x6>

    /* Initialise white list flag */
    g_app_data.enable_white_list = FALSE;
     873:	0014      	ld         al, #+0x0
     874:	3E00      	**prefx    0x3E
     875:	1A25      	st         al, @0x3E1A <g_app_data+0x1A>
        g_app_data.bonding_reattempt_tid = TIMER_INVALID;
    }
#endif /* PAIRING_SUPPORT */

    /* Reset the connection parameter variables */
    g_app_data.conn_interval = 0;
     876:	3E00      	**prefx    0x3E
     877:	1B25      	st         al, @0x3E1B <g_app_data+0x1B>
    g_app_data.conn_latency = 0;
     878:	3E00      	**prefx    0x3E
     879:	1C25      	st         al, @0x3E1C <g_app_data+0x1C>
    g_app_data.conn_timeout = 0;
     87A:	3E00      	**prefx    0x3E
     87B:	1D25      	st         al, @0x3E1D <g_app_data+0x1D>

    /* Initialise the application GATT data */
    InitGattData();
     87C:	FD00      	**prefx    0xFD
     87D:	339C      	bsr        -0x2CD <InitGattData:0x5B0[p]>
    
    /* Reset application hardware data */
    HwDataReset();
     87E:	FF00      	**prefx    0xFF
     87F:	F29C      	bsr        -0x10E <HwDataReset:0x771[p]>

    /* Initialise GAP data structure */
    GapDataInit();
     880:	FD00      	**prefx    0xFD
     881:	869C      	bsr        -0x37A <BSS_SIZE:0x507[p]>

    /* Battery Service data initialisation */
    BatteryDataInit();
     882:	FB00      	**prefx    0xFB
     883:	399C      	bsr        -0x4C7 <BatteryDataInit:0x3BC[p]>
    
    /* Auth Service data initialization */
    InitAuthServiceData();
     884:	0300      	**prefx    0x3
     885:	7E9C      	bsr        +0x37E <InitAuthServiceData:0xC03[p]>

    /* Call the required service data initialisation APIs from here */
}
     886:	010F      	leave      #+0x1

0x00000887 <AppProcessSystemEvent>:
 *
 *  RETURNS
 *      Nothing
 *----------------------------------------------------------------------------*/
void AppProcessSystemEvent(sys_event_id id, void *data)
{
     887:	010B      	enter      #+0x1
    switch(id)
     888:	0184      	cmp        al, #+0x1
     889:	04F4      	beq        +0x4 <AppProcessSystemEvent+0x6:0x88D[p]>
     88A:	0284      	cmp        al, #+0x2
     88B:	0EF0      	bne        +0xE <AppProcessSystemEvent+0x12:0x899[p]>
     88C:	0AE0      	bra        +0xA <AppProcessSystemEvent+0xF:0x896[p]>
        {
            /* Battery low event received - notify the connected host. If 
             * not connected, the battery level will get notified when 
             * device gets connected again
             */
            if(g_app_data.state == app_state_connected)
     88D:	3E00      	**prefx    0x3E
     88E:	0015      	ld         al, @0x3E00 <g_app_data>
     88F:	0384      	cmp        al, #+0x3
     890:	09F0      	bne        +0x9 <AppProcessSystemEvent+0x12:0x899[p]>
            {
                BatteryUpdateLevel(g_app_data.st_ucid);
     891:	3E00      	**prefx    0x3E
     892:	0615      	ld         al, @0x3E06 <g_app_data+0x6>
     893:	FB00      	**prefx    0xFB
     894:	7D9C      	bsr        -0x483 <BatteryUpdateLevel:0x411[p]>
     895:	04E0      	bra        +0x4 <AppProcessSystemEvent+0x12:0x899[p]>
        break;

        case sys_event_pio_changed:
        {
             /* Handle the PIO changed event. */
             HandlePIOChangedEvent((pio_changed_data*)data);
     896:	E015      	ld         al, @0xFFE0 <register ah>
     897:	FF00      	**prefx    0xFF
     898:	E49C      	bsr        -0x11C <HandlePIOChangedEvent:0x77C[p]>
            
        default:
            /* Ignore anything else */
        break;
    }
}
     899:	010F      	leave      #+0x1

0x0000089A <AppInit>:
 *
 *  RETURNS
 *      Nothing
 *----------------------------------------------------------------------------*/
extern void AppInit(sleep_state last_sleep_state)
{
     89A:	050B      	enter      #+0x5
    uint16 gatt_db_length = 0;  /* GATT database size */
     89B:	0014      	ld         al, #+0x0
     89C:	0127      	st         al, @(+0x1, y)
    /* Use static random address for the application */
    GapSetStaticAddress();
#endif

    /* Initialise the GATT Server application state */
    g_app_data.state = app_state_init;
     89D:	3E00      	**prefx    0x3E
     89E:	0025      	st         al, @0x3E00 <g_app_data>

    /* Initialise the application timers */
    TimerInit(MAX_APP_TIMERS, (void*)app_timers);
     89F:	0514      	ld         al, #+0x5
     8A0:	3E00      	**prefx    0x3E
     8A1:	E210      	ld         ah, #+0x3DE2
     8A2:	0100      	**prefx    0x1
     8A3:	D700      	**prefx    0xD7
     8A4:	069C      	bsr        +0xD706 <TimerInit:0xDFAA[p]>
    
    /* Initialise local timers */
    g_app_data.con_param_update_tid = TIMER_INVALID;
     8A5:	0014      	ld         al, #+0x0
     8A6:	3E00      	**prefx    0x3E
     8A7:	0E25      	st         al, @0x3E0E <g_app_data+0xE>
    g_app_data.app_tid = TIMER_INVALID;
     8A8:	3E00      	**prefx    0x3E
     8A9:	1925      	st         al, @0x3E19 <g_app_data+0x19>
#ifdef PAIRING_SUPPORT
    g_app_data.bonding_reattempt_tid = TIMER_INVALID;
#endif

    /* Initialise GATT entity */
    GattInit();
     8AA:	0500      	**prefx    0x5
     8AB:	E89C      	bsr        +0x4E8 <GattInit:0xD93[p]>

    /* Initialise GATT Server H/W */
    InitHardware();
     8AC:	FF00      	**prefx    0xFF
     8AD:	039C      	bsr        -0xFD <InitHardware:0x7B0[p]>

    /* Install GATT Server support for the optional Write procedure.
     * This is mandatory only if the control point characteristic is supported. 
     */
    GattInstallServerWrite();
     8AE:	0100      	**prefx    0x1
     8AF:	A900      	**prefx    0xA9
     8B0:	8A9C      	bsr        +0xA88A <GattInstallServerWrite:0xB13A[p]>

    /* Don't wakeup on UART RX line */
    SleepWakeOnUartRX(FALSE);
     8B1:	0014      	ld         al, #+0x0
     8B2:	0100      	**prefx    0x1
     8B3:	D800      	**prefx    0xD8
     8B4:	6F9C      	bsr        +0xD86F <SleepWakeOnUartRX:0xE123[p]>

#ifdef NVM_TYPE_EEPROM
    /* Configure the NVM manager to use I2C EEPROM for NVM store */
    NvmConfigureI2cEeprom();
     8B5:	0E00      	**prefx    0xE
     8B6:	8B9C      	bsr        +0xD8B <NvmConfigureI2cEeprom:0x1641[p]>
#elif NVM_TYPE_FLASH
    /* Configure the NVM Manager to use SPI flash for NVM store. */
    NvmConfigureSpiFlash();
#endif /* NVM_TYPE_EEPROM */

    Nvm_Disable();
     8B7:	FF00      	**prefx    0xFF
     8B8:	419C      	bsr        -0xBF <Nvm_Disable:0x7F9[p]>

    /* Battery initialisation on chip reset */
    BatteryInitChipReset();
     8B9:	FB00      	**prefx    0xFB
     8BA:	F79C      	bsr        -0x509 <BatteryInitChipReset:0x3B1[p]>

    /* Initialize the GAP data. Needs to be done before readPersistentStore */
    GapDataInit();
     8BB:	FC00      	**prefx    0xFC
     8BC:	4B9C      	bsr        -0x3B5 <BSS_SIZE:0x507[p]>
 *      Nothing
 *----------------------------------------------------------------------------*/
static void readPersistentStore(void)
{
    /* NVM offset for supported services */
    uint16 nvm_offset = NVM_MAX_APP_MEMORY_WORDS;
     8BD:	1014      	ld         al, #+0x10
     8BE:	0227      	st         al, @(+0x2, y)
    uint16 nvm_sanity = 0xffff;
     8BF:	FF14      	ld         al, #-0x1
     8C0:	0327      	st         al, @(+0x3, y)
     * device. If the device was bonded, trigger fast undirected advertisements
     * by setting the white list for bonded host. If the device was not bonded,
     * trigger undirected advertisements for any host to connect.
     */
    
    Nvm_Read(&nvm_sanity, 
     8C1:	0014      	ld         al, #+0x0
     8C2:	0027      	st         al, @(0x0, y)
     8C3:	E415      	ld         al, @0xFFE4 <register uy>
     8C4:	0334      	add        al, #+0x3
     8C5:	0110      	ld         ah, #+0x1
     8C6:	FF00      	**prefx    0xFF
     8C7:	499C      	bsr        -0xB7 <Nvm_Read:0x810[p]>
             sizeof(nvm_sanity), 
             NVM_OFFSET_SANITY_WORD);

    if(nvm_sanity == NVM_SANITY_MAGIC)
     8C8:	0317      	ld         al, @(+0x3, y)
     8C9:	AC00      	**prefx    0xAC
     8CA:	AA84      	cmp        al, #-0x5456
     8CB:	2BF0      	bne        +0x2B <AppInit+0x5C:0x8F6[p]>
    {

        /* Read Bonded Flag from NVM */
        Nvm_Read((uint16*)&g_app_data.bonded,
     8CC:	0114      	ld         al, #+0x1
     8CD:	0027      	st         al, @(0x0, y)
     8CE:	3E00      	**prefx    0x3E
     8CF:	0714      	ld         al, #+0x3E07
     8D0:	0110      	ld         ah, #+0x1
     8D1:	FF00      	**prefx    0xFF
     8D2:	3E9C      	bsr        -0xC2 <Nvm_Read:0x810[p]>
                  sizeof(g_app_data.bonded),
                  NVM_OFFSET_BONDED_FLAG);

        if(g_app_data.bonded)
     8D3:	3E00      	**prefx    0x3E
     8D4:	0799      	tst        @0x3E07 <g_app_data+0x7>
     8D5:	15F4      	beq        +0x15 <AppInit+0x50:0x8EA[p]>
        {
            /* Bonded Host Typed BD Address will only be stored if bonded flag
             * is set to TRUE. Read last bonded device address.
             */
            Nvm_Read((uint16*)&g_app_data.bonded_bd_addr, 
     8D6:	0214      	ld         al, #+0x2
     8D7:	0027      	st         al, @(0x0, y)
     8D8:	3E00      	**prefx    0x3E
     8D9:	0814      	ld         al, #+0x3E08
     8DA:	0510      	ld         ah, #+0x5
     8DB:	FF00      	**prefx    0xFF
     8DC:	349C      	bsr        -0xCC <Nvm_Read:0x810[p]>
                       NVM_OFFSET_BONDED_ADDR);

            /* If device is bonded and bonded address is resolvable then read 
             * the bonded device's IRK
             */
            if(GattIsAddressResolvableRandom(&g_app_data.bonded_bd_addr))
     8DD:	3E00      	**prefx    0x3E
     8DE:	0814      	ld         al, #+0x3E08
     8DF:	FD00      	**prefx    0xFD
     8E0:	FB9C      	bsr        -0x305 <GattIsAddressResolvableRandom:0x5DB[p]>
     8E1:	E199      	tst        @0xFFE1 <register al>
     8E2:	08F4      	beq        +0x8 <AppInit+0x50:0x8EA[p]>
            {
                Nvm_Read(g_app_data.irk, 
     8E3:	0814      	ld         al, #+0x8
     8E4:	0027      	st         al, @(0x0, y)
     8E5:	3E00      	**prefx    0x3E
     8E6:	0F14      	ld         al, #+0x3E0F
     8E7:	0810      	ld         ah, #+0x8
     8E8:	FF00      	**prefx    0xFF
     8E9:	279C      	bsr        -0xD9 <Nvm_Read:0x810[p]>
        }

        /* Read the diversifier associated with the presently bonded/last 
         * bonded device.
         */
        Nvm_Read(&g_app_data.diversifier, 
     8EA:	0714      	ld         al, #+0x7
     8EB:	0027      	st         al, @(0x0, y)
     8EC:	3E00      	**prefx    0x3E
     8ED:	0D14      	ld         al, #+0x3E0D
     8EE:	0110      	ld         ah, #+0x1
     8EF:	FF00      	**prefx    0xFF
     8F0:	209C      	bsr        -0xE0 <Nvm_Read:0x810[p]>
                 sizeof(g_app_data.diversifier),
                 NVM_OFFSET_SM_DIV);

        /* If NVM in use, read device name and length from NVM */
        GapReadDataFromNVM(&nvm_offset);
     8F1:	E415      	ld         al, @0xFFE4 <register uy>
     8F2:	0234      	add        al, #+0x2
     8F3:	FC00      	**prefx    0xFC
     8F4:	409C      	bsr        -0x3C0 <GapReadDataFromNVM:0x534[p]>
     8F5:	23E0      	bra        +0x23 <AppInit+0x7E:0x918[p]>
          */
    {

        nvm_start_fresh = TRUE;

        nvm_sanity = NVM_SANITY_MAGIC;
     8F6:	AC00      	**prefx    0xAC
     8F7:	AA14      	ld         al, #-0x5456
     8F8:	0327      	st         al, @(+0x3, y)

        /* Write NVM Sanity word to the NVM */
        Nvm_Write(&nvm_sanity, 
     8F9:	0014      	ld         al, #+0x0
     8FA:	0027      	st         al, @(0x0, y)
     8FB:	E415      	ld         al, @0xFFE4 <register uy>
     8FC:	0334      	add        al, #+0x3
     8FD:	0110      	ld         ah, #+0x1
     8FE:	FF00      	**prefx    0xFF
     8FF:	039C      	bsr        -0xFD <Nvm_Write:0x802[p]>
                  NVM_OFFSET_SANITY_WORD);

        /* The device will not be bonded as it is coming up for the first 
         * time 
         */
        g_app_data.bonded = FALSE;
     900:	0014      	ld         al, #+0x0
     901:	3E00      	**prefx    0x3E
     902:	0725      	st         al, @0x3E07 <g_app_data+0x7>

        /* Write bonded status to NVM */
        Nvm_Write((uint16*)&g_app_data.bonded, 
     903:	0114      	ld         al, #+0x1
     904:	0027      	st         al, @(0x0, y)
     905:	3E00      	**prefx    0x3E
     906:	0714      	ld         al, #+0x3E07
     907:	0110      	ld         ah, #+0x1
     908:	FF00      	**prefx    0xFF
     909:	F99C      	bsr        -0x107 <Nvm_Write:0x802[p]>

        /* When the application is coming up for the first time after flashing 
         * the image to it, it will not have bonded to any device. So, no LTK 
         * will be associated with it. Hence, set the diversifier to 0.
         */
        g_app_data.diversifier = 0;
     90A:	0014      	ld         al, #+0x0
     90B:	3E00      	**prefx    0x3E
     90C:	0D25      	st         al, @0x3E0D <g_app_data+0xD>

        /* Write the same to NVM. */
        Nvm_Write(&g_app_data.diversifier, 
     90D:	0714      	ld         al, #+0x7
     90E:	0027      	st         al, @(0x0, y)
     90F:	3E00      	**prefx    0x3E
     910:	0D14      	ld         al, #+0x3E0D
     911:	0110      	ld         ah, #+0x1
     912:	FF00      	**prefx    0xFF
     913:	EF9C      	bsr        -0x111 <Nvm_Write:0x802[p]>
                  NVM_OFFSET_SM_DIV);

        /* If fresh NVM, write device name and length to NVM for the 
         * first time.
         */
        GapInitWriteDataToNVM(&nvm_offset);
     914:	E415      	ld         al, @0xFFE4 <register uy>
     915:	0234      	add        al, #+0x2
     916:	FC00      	**prefx    0xFC
     917:	119C      	bsr        -0x3EF <GapInitWriteDataToNVM:0x528[p]>

    /* Read Battery service data from NVM if the devices are bonded and  
     * update the offset with the number of words of NVM required by 
     * this service
     */
    BatteryReadDataFromNVM(&nvm_offset);
     918:	E415      	ld         al, @0xFFE4 <register uy>
     919:	0234      	add        al, #+0x2
     91A:	FB00      	**prefx    0xFB
     91B:	B79C      	bsr        -0x549 <BatteryReadDataFromNVM:0x3D2[p]>
    readPersistentStore();

    /* Tell Security Manager module what value it needs to initialise its
     * diversifier to.
     */
    SMInit(g_app_data.diversifier);
     91C:	3E00      	**prefx    0x3E
     91D:	0D15      	ld         al, @0x3E0D <g_app_data+0xD>
     91E:	7E00      	**prefx    0x7E
     91F:	459C      	bsr        +0x7E45 <SMInit:0x8764[p]>
    
    /* Initialise hardware data */
    HwDataInit();
     920:	FE00      	**prefx    0xFE
     921:	4C9C      	bsr        -0x1B4 <HwDataInit:0x76D[p]>

    /* Initialise application data structure */
    appDataInit();
     922:	FF00      	**prefx    0xFF
     923:	379C      	bsr        -0xC9 <appDataInit:0x85A[p]>

    /* Tell GATT about our database. We will get a GATT_ADD_DB_CFM event when
     * this has completed.
     */
    p_gatt_db = GattGetDatabase(&gatt_db_length);
     924:	E415      	ld         al, @0xFFE4 <register uy>
     925:	0134      	add        al, #+0x1
     926:	FB00      	**prefx    0xFB
     927:	829C      	bsr        -0x57E <GattGetDatabase:0x3A9[p]>
     928:	E111      	ld         ah, @0xFFE1 <register al>

    GattAddDatabaseReq(gatt_db_length, p_gatt_db);
     929:	0117      	ld         al, @(+0x1, y)
     92A:	0100      	**prefx    0x1
     92B:	A800      	**prefx    0xA8
     92C:	B29C      	bsr        +0xA7B2 <GattAddDatabaseReq:0xB0DE[p]>

}
     92D:	050F      	leave      #+0x5

0x0000092E <appAdvertTimerHandler>:
 *      Nothing
 *----------------------------------------------------------------------------*/
static void appAdvertTimerHandler(timer_id tid)
{
    /* Based upon the timer id, stop on-going advertisements */
    if(g_app_data.app_tid == tid)
     92E:	3E00      	**prefx    0x3E
     92F:	1911      	ld         ah, @0x3E19 <g_app_data+0x19>
     930:	E181      	cmp        ah, @0xFFE1 <register al>
     931:	06F0      	bne        +0x6 <appAdvertTimerHandler+0x9:0x937[p]>
    {
        /* Timer has just expired so mark it as invalid */
        g_app_data.app_tid = TIMER_INVALID;
     932:	0014      	ld         al, #+0x0
     933:	3E00      	**prefx    0x3E
     934:	1925      	st         al, @0x3E19 <g_app_data+0x19>

        GattStopAdverts();
     935:	FD00      	**prefx    0xFD
     936:	B6E0      	bra        -0x34A <GattStopAdverts:0x5EC[p]>
     937:	00E2      	bra        0x0, x

0x00000938 <ReportPanic>:
 *      Nothing
 *----------------------------------------------------------------------------*/
extern void ReportPanic(app_panic_code panic_code)
{
    /* Raise panic */
    Panic(panic_code);
     938:	0100      	**prefx    0x1
     939:	EE00      	**prefx    0xEE
     93A:	4BE0      	bra        +0xEE4B <Panic:0xF785[p]>

0x0000093B <requestConnParamUpdate>:
 *
 *  RETURNS
 *      Nothing
 *----------------------------------------------------------------------------*/
static void requestConnParamUpdate(timer_id tid)
{
     93B:	050B      	enter      #+0x5
                {
                    PREFERRED_MIN_CON_INTERVAL,
                    PREFERRED_MAX_CON_INTERVAL,
                    PREFERRED_SLAVE_LATENCY,
                    PREFERRED_SUPERVISION_TIMEOUT
                };
     93C:	3E00      	**prefx    0x3E
     93D:	8119      	ld         x, @0x3D81 <C.2..2706.>
     93E:	002B      	st         x, @(0x0, y)
     93F:	3E00      	**prefx    0x3E
     940:	8219      	ld         x, @0x3D82 <C.2..2706.+0x1>
     941:	012B      	st         x, @(+0x1, y)
     942:	3E00      	**prefx    0x3E
     943:	8319      	ld         x, @0x3D83 <C.2..2706.+0x2>
     944:	022B      	st         x, @(+0x2, y)
     945:	3E00      	**prefx    0x3E
     946:	8419      	ld         x, @0x3D84 <C.2..2706.+0x3>
     947:	032B      	st         x, @(+0x3, y)

    if(g_app_data.con_param_update_tid == tid)
     948:	3E00      	**prefx    0x3E
     949:	0E11      	ld         ah, @0x3E0E <g_app_data+0xE>
     94A:	E181      	cmp        ah, @0xFFE1 <register al>
     94B:	17F0      	bne        +0x17 <L0+0x20:0x962[p]>
    {
        /* Timer has just expired, so mark it as being invalid */
        g_app_data.con_param_update_tid = TIMER_INVALID;
     94C:	0014      	ld         al, #+0x0
     94D:	3E00      	**prefx    0x3E
     94E:	0E25      	st         al, @0x3E0E <g_app_data+0xE>

        /* Handle signal as per current state */
        switch(g_app_data.state)
     94F:	3E00      	**prefx    0x3E
     950:	0015      	ld         al, @0x3E00 <g_app_data>
     951:	0384      	cmp        al, #+0x3
     952:	10F0      	bne        +0x10 <L0+0x20:0x962[p]>
            {
                /* Send Connection Parameter Update request using application 
                 * specific preferred connection parameters
                 */

                if(LsConnectionParamUpdateReq(&g_app_data.con_bd_addr, 
     953:	3E00      	**prefx    0x3E
     954:	0114      	ld         al, #+0x3E01
     955:	E411      	ld         ah, @0xFFE4 <register uy>
     956:	0100      	**prefx    0x1
     957:	8800      	**prefx    0x88
     958:	8C9C      	bsr        +0x878C <LsConnectionParamUpdateReq:0x90E4[p]>
     959:	E199      	tst        @0xFFE1 <register al>
     95A:	03F4      	beq        +0x3 <L0+0x1B:0x95D[p]>
                                &app_pref_conn_param) != ls_err_none)
                {
                    ReportPanic(app_panic_con_param_update);
     95B:	0914      	ld         al, #+0x9
     95C:	DC9C      	bsr        -0x24 <ReportPanic:0x938[p]>
                }

                /* Increment the count for connection parameter update 
                 * requests 
                 */
                ++ g_app_data.num_conn_update_req;
     95D:	3E00      	**prefx    0x3E
     95E:	1715      	ld         al, @0x3E17 <g_app_data+0x17>
     95F:	0134      	add        al, #+0x1
     960:	3E00      	**prefx    0x3E
     961:	1725      	st         al, @0x3E17 <g_app_data+0x17>
            break;
        }

    } /* Else ignore the timer */

}
     962:	050F      	leave      #+0x5

0x00000963 <SetState>:
 *
 *  RETURNS
 *      Nothing
 *----------------------------------------------------------------------------*/
extern void SetState(app_state new_state)
{
     963:	020B      	enter      #+0x2
     964:	0027      	st         al, @(0x0, y)
    /* Check that the new state is not the same as the current state */
    app_state old_state = g_app_data.state;
     965:	3E00      	**prefx    0x3E
     966:	0015      	ld         al, @0x3E00 <g_app_data>
    
    if (old_state != new_state)
     967:	0087      	cmp        al, @(0x0, y)
     968:	64F4      	beq        +0x64 <.JTBASE55+0x33:0x9CC[p]>
    {
        /* Exit current state */
        switch (old_state)
     969:	0384      	cmp        al, #+0x3
     96A:	04F8      	bcc        +0x4 <SetState+0xB:0x96E[p]>
     96B:	0184      	cmp        al, #+0x1
     96C:	1BF8      	bcc        +0x1B <SetState+0x24:0x987[p]>
     96D:	04E0      	bra        +0x4 <SetState+0xE:0x971[p]>
     96E:	0484      	cmp        al, #+0x4
     96F:	20F0      	bne        +0x20 <SetState+0x2C:0x98F[p]>
     970:	14E0      	bra        +0x14 <SetState+0x21:0x984[p]>
 *  RETURNS
 *      Nothing
 *----------------------------------------------------------------------------*/
static void appInitExit(void)
{
    if(g_app_data.bonded && 
     971:	3E00      	**prefx    0x3E
     972:	0799      	tst        @0x3E07 <g_app_data+0x7>
     973:	1CF4      	beq        +0x1C <SetState+0x2C:0x98F[p]>
     974:	3E00      	**prefx    0x3E
     975:	0814      	ld         al, #+0x3E08
     976:	FC00      	**prefx    0xFC
     977:	649C      	bsr        -0x39C <GattIsAddressResolvableRandom:0x5DB[p]>
     978:	E199      	tst        @0xFFE1 <register al>
     979:	16F0      	bne        +0x16 <SetState+0x2C:0x98F[p]>
    {
        /* If the device is bonded and the bonded device address is not
         * resolvable random, configure the white list with the bonded 
         * host address.
         */
        if(LsAddWhiteListDevice(&g_app_data.bonded_bd_addr) != ls_err_none)
     97A:	3E00      	**prefx    0x3E
     97B:	0814      	ld         al, #+0x3E08
     97C:	0100      	**prefx    0x1
     97D:	8800      	**prefx    0x88
     97E:	FA9C      	bsr        +0x87FA <LsAddWhiteListDevice:0x9178[p]>
     97F:	E199      	tst        @0xFFE1 <register al>
     980:	0FF4      	beq        +0xF <SetState+0x2C:0x98F[p]>
        {
            ReportPanic(app_panic_add_whitelist);
     981:	0814      	ld         al, #+0x8
     982:	B69C      	bsr        -0x4A <ReportPanic:0x938[p]>
     983:	0CE0      	bra        +0xC <SetState+0x2C:0x98F[p]>
                 */

                /* Initialise application and used services data structure 
                 * while exiting Disconnecting state
                 */
                appDataInit();
     984:	FF00      	**prefx    0xFF
     985:	D59C      	bsr        -0x12B <appDataInit:0x85A[p]>
     986:	09E0      	bra        +0x9 <SetState+0x2C:0x98F[p]>
static void appExitAdvertising(void)
{
    /* Cancel advertisement timer. Must be valid because timer is active
     * during app_state_fast_advertising and app_state_slow_advertising states.
     */
    TimerDelete(g_app_data.app_tid);
     987:	3E00      	**prefx    0x3E
     988:	1915      	ld         al, @0x3E19 <g_app_data+0x19>
     989:	0100      	**prefx    0x1
     98A:	D700      	**prefx    0xD7
     98B:	B49C      	bsr        +0xD6B4 <TimerDelete:0xE03F[p]>
    g_app_data.app_tid = TIMER_INVALID;
     98C:	0014      	ld         al, #+0x0
     98D:	3E00      	**prefx    0x3E
     98E:	1925      	st         al, @0x3E19 <g_app_data+0x19>
                /* Nothing to do */
            break;
        }

        /* Set new state */
        g_app_data.state = new_state;
     98F:	0017      	ld         al, @(0x0, y)
     990:	3E00      	**prefx    0x3E
     991:	0025      	st         al, @0x3E00 <g_app_data>

        /* Enter new state */
        switch (new_state)
     992:	E119      	ld         x, @0xFFE1 <register al>
     993:	FF38      	add        x, #-0x1
     994:	0588      	cmp        x, #+0x5
     995:	37F8      	bcc        +0x37 <.JTBASE55+0x33:0x9CC[p]>
     996:	3D00      	**prefx    0x3D
     997:	7C1A      	ld         x, @(+0x3D7C, x)
     998:	FE09      	brxl       

0x00000999 <.JTBASE55>:
 *  RETURNS
 *      Nothing
 *----------------------------------------------------------------------------*/
static void enableWhiteList(void)
{
    if(IsDeviceBonded())
     999:	FF00      	**prefx    0xFF
     99A:	8A9C      	bsr        -0x176 <IsDeviceBonded:0x824[p]>
     99B:	E199      	tst        @0xFFE1 <register al>
     99C:	0AF4      	beq        +0xA <.JTBASE55+0xD:0x9A6[p]>
    {
        if(!GattIsAddressResolvableRandom(&g_app_data.bonded_bd_addr))
     99D:	3E00      	**prefx    0x3E
     99E:	0814      	ld         al, #+0x3E08
     99F:	FC00      	**prefx    0xFC
     9A0:	3B9C      	bsr        -0x3C5 <GattIsAddressResolvableRandom:0x5DB[p]>
     9A1:	E199      	tst        @0xFFE1 <register al>
     9A2:	04F0      	bne        +0x4 <.JTBASE55+0xD:0x9A6[p]>
        {
            /* Enable white list if the device is bonded and the bonded host 
             * is not using resolvable random address.
             */
            g_app_data.enable_white_list = TRUE;
     9A3:	0114      	ld         al, #+0x1
     9A4:	3E00      	**prefx    0x3E
     9A5:	1A25      	st         al, @0x3E1A <g_app_data+0x1A>
                 * device and that device is not using resolvable random 
                 * address.
                 */
                enableWhiteList();
                /* Trigger fast advertisements. */
                GattTriggerFastAdverts(&g_app_data.bonded_bd_addr);
     9A6:	3E00      	**prefx    0x3E
     9A7:	0814      	ld         al, #+0x3E08
     9A8:	FD00      	**prefx    0xFD
     9A9:	479C      	bsr        -0x2B9 <GattTriggerFastAdverts:0x6F0[p]>

            default:
            break;
        }
    }
}
     9AA:	011B      	ld         x, @(+0x1, y)
     9AB:	023C      	add        y, #+0x2
                enableWhiteList();
                /* Trigger fast advertisements. */
                GattTriggerFastAdverts(&g_app_data.bonded_bd_addr);

                /* Indicate advertising mode by sounding two short beeps */
                IndicateAdvertisingServer();
     9AC:	FE00      	**prefx    0xFE
     9AD:	44E0      	bra        -0x1BC <IndicateAdvertisingServer:0x7F1[p]>
            }
            break;

            case app_state_slow_advertising:
                /* Start slow advertisements */
                IndicateAdvertisingServer();
     9AE:	FE00      	**prefx    0xFE
     9AF:	429C      	bsr        -0x1BE <IndicateAdvertisingServer:0x7F1[p]>
                GattStartAdverts(&g_app_data.bonded_bd_addr, FALSE);
     9B0:	3E00      	**prefx    0x3E
     9B1:	0814      	ld         al, #+0x3E08
     9B2:	0010      	ld         ah, #+0x0

            default:
            break;
        }
    }
}
     9B3:	011B      	ld         x, @(+0x1, y)
     9B4:	023C      	add        y, #+0x2
            break;

            case app_state_slow_advertising:
                /* Start slow advertisements */
                IndicateAdvertisingServer();
                GattStartAdverts(&g_app_data.bonded_bd_addr, FALSE);
     9B5:	FD00      	**prefx    0xFD
     9B6:	1BE0      	bra        -0x2E5 <GattStartAdverts:0x6D1[p]>

            default:
            break;
        }
    }
}
     9B7:	011B      	ld         x, @(+0x1, y)
     9B8:	023C      	add        y, #+0x2
                GattStartAdverts(&g_app_data.bonded_bd_addr, FALSE);
            break;

            case app_state_idle:
                /* Sound long beep to indicate non-connectable mode */
                IndicateUnhandledState();
     9B9:	FE00      	**prefx    0xFE
     9BA:	27E0      	bra        -0x1D9 <IndicateUnhandledState:0x7E1[p]>
            case app_state_connected:
            {
                /* Common things to do whenever application enters
                 * app_state_connected state.
                 */
                IndicateConnection();
     9BB:	FE00      	**prefx    0xFE
     9BC:	2D9C      	bsr        -0x1D3 <IndicateConnection:0x7E9[p]>
#else /* !PAIRING_SUPPORT */
                /* Update battery status at every connection instance. It may 
                 * not be worth updating timer this often, but this will 
                 * depend upon application requirements 
                 */
                BatteryUpdateLevel(g_app_data.st_ucid);
     9BD:	3E00      	**prefx    0x3E
     9BE:	0615      	ld         al, @0x3E06 <g_app_data+0x6>

            default:
            break;
        }
    }
}
     9BF:	011B      	ld         x, @(+0x1, y)
     9C0:	023C      	add        y, #+0x2
#else /* !PAIRING_SUPPORT */
                /* Update battery status at every connection instance. It may 
                 * not be worth updating timer this often, but this will 
                 * depend upon application requirements 
                 */
                BatteryUpdateLevel(g_app_data.st_ucid);
     9C1:	FA00      	**prefx    0xFA
     9C2:	4FE0      	bra        -0x5B1 <BatteryUpdateLevel:0x411[p]>
             }
            break;

            case app_state_disconnecting:
                /* Disconnect the link */
                IndicateUnhandledState();
     9C3:	FE00      	**prefx    0xFE
     9C4:	1D9C      	bsr        -0x1E3 <IndicateUnhandledState:0x7E1[p]>
                GattDisconnectReq(g_app_data.st_ucid);
     9C5:	3E00      	**prefx    0x3E
     9C6:	0615      	ld         al, @0x3E06 <g_app_data+0x6>

            default:
            break;
        }
    }
}
     9C7:	011B      	ld         x, @(+0x1, y)
     9C8:	023C      	add        y, #+0x2
            break;

            case app_state_disconnecting:
                /* Disconnect the link */
                IndicateUnhandledState();
                GattDisconnectReq(g_app_data.st_ucid);
     9C9:	0100      	**prefx    0x1
     9CA:	A600      	**prefx    0xA6
     9CB:	8FE0      	bra        +0xA58F <GattDisconnectReq:0xAF5A[p]>

            default:
            break;
        }
    }
}
     9CC:	020F      	leave      #+0x2

0x000009CD <HandlePairingRemoval>:
 *
 *  RETURNS
 *      Nothing
 *----------------------------------------------------------------------------*/
extern void HandlePairingRemoval(void)
{
     9CD:	020B      	enter      #+0x2

    /* Remove bonding information */

    /* The device will no longer be bonded */
    g_app_data.bonded = FALSE;
     9CE:	0014      	ld         al, #+0x0
     9CF:	3E00      	**prefx    0x3E
     9D0:	0725      	st         al, @0x3E07 <g_app_data+0x7>

    /* Write bonded status to NVM */
    Nvm_Write((uint16*)&g_app_data.bonded, 
     9D1:	0114      	ld         al, #+0x1
     9D2:	0027      	st         al, @(0x0, y)
     9D3:	3E00      	**prefx    0x3E
     9D4:	0714      	ld         al, #+0x3E07
     9D5:	0110      	ld         ah, #+0x1
     9D6:	FE00      	**prefx    0xFE
     9D7:	2B9C      	bsr        -0x1D5 <Nvm_Write:0x802[p]>
              sizeof(g_app_data.bonded), 
              NVM_OFFSET_BONDED_FLAG);


    switch(g_app_data.state)
     9D8:	3E00      	**prefx    0x3E
     9D9:	0015      	ld         al, @0x3E00 <g_app_data>
     9DA:	0384      	cmp        al, #+0x3
     9DB:	09F4      	beq        +0x9 <HandlePairingRemoval+0x17:0x9E4[p]>
     9DC:	0484      	cmp        al, #+0x4
     9DD:	04F8      	bcc        +0x4 <HandlePairingRemoval+0x14:0x9E1[p]>
     9DE:	0184      	cmp        al, #+0x1
     9DF:	15FC      	bcs        +0x15 <HandlePairingRemoval+0x27:0x9F4[p]>
     9E0:	08E0      	bra        +0x8 <HandlePairingRemoval+0x1B:0x9E8[p]>
     9E1:	0484      	cmp        al, #+0x4
     9E2:	12F0      	bne        +0x12 <HandlePairingRemoval+0x27:0x9F4[p]>
     9E3:	0DE0      	bra        +0xD <HandlePairingRemoval+0x23:0x9F0[p]>
            /* Disconnect from the connected host before triggering 
             * advertisements again for any host to connect. Application
             * and services data related to bonding status will get 
             * updated while exiting disconnecting state.
             */
            SetState(app_state_disconnecting);
     9E4:	0414      	ld         al, #+0x4
     9E5:	FF00      	**prefx    0xFF
     9E6:	7D9C      	bsr        -0x83 <SetState:0x963[p]>
     9E7:	09E0      	bra        +0x9 <HandlePairingRemoval+0x23:0x9F0[p]>
        case app_state_slow_advertising:
        {
            /* Initialise application and services data related to 
             * bonding status
             */
            appDataInit();
     9E8:	FE00      	**prefx    0xFE
     9E9:	719C      	bsr        -0x18F <appDataInit:0x85A[p]>

            /* Set flag for pairing / bonding removal */
            g_app_data.pairing_button_pressed = TRUE;
     9EA:	0114      	ld         al, #+0x1
     9EB:	3E00      	**prefx    0x3E
     9EC:	1825      	st         al, @0x3E18 <g_app_data+0x18>

            /* Stop advertisements first as it may be making use of the white 
             * list. Once advertisements are stopped, reset the white list
             * and trigger advertisements again for any host to connect.
             */
            GattStopAdverts();
     9ED:	FC00      	**prefx    0xFC
     9EE:	FE9C      	bsr        -0x402 <GattStopAdverts:0x5EC[p]>
     9EF:	0DE0      	bra        +0xD <HandlePairingRemoval+0x2F:0x9FC[p]>
             * and wait for the procedure to complete before triggering 
             * advertisements again for any host to connect. Application
             * and services data related to bonding status will get 
             * updated while exiting disconnecting state.
             */
            LsResetWhiteList();
     9F0:	0100      	**prefx    0x1
     9F1:	8800      	**prefx    0x88
     9F2:	8F9C      	bsr        +0x878F <LsResetWhiteList:0x9181[p]>
     9F3:	09E0      	bra        +0x9 <HandlePairingRemoval+0x2F:0x9FC[p]>
        default: /* app_state_init / app_state_idle handling */
        {
            /* Initialise application and services data related to 
             * bonding status
             */
            appDataInit();
     9F4:	FE00      	**prefx    0xFE
     9F5:	659C      	bsr        -0x19B <appDataInit:0x85A[p]>

            /* Reset and clear the white list */
            LsResetWhiteList();
     9F6:	0100      	**prefx    0x1
     9F7:	8800      	**prefx    0x88
     9F8:	899C      	bsr        +0x8789 <LsResetWhiteList:0x9181[p]>

            /* Start fast undirected advertisements */
            SetState(app_state_fast_advertising);
     9F9:	0114      	ld         al, #+0x1
     9FA:	FF00      	**prefx    0xFF
     9FB:	689C      	bsr        -0x98 <SetState:0x963[p]>
        }
        break;

    }
}
     9FC:	020F      	leave      #+0x2

0x000009FD <HandleShortButtonPress>:
 *
 *  RETURNS
 *      Nothing
 *----------------------------------------------------------------------------*/
extern void HandleShortButtonPress(void)
{
     9FD:	010B      	enter      #+0x1
    /* Indicate short button press using short beep */
    //SoundBuzzer(buzzer_beep_short);

    /* Handle signal as per current state */
    switch(g_app_data.state)
     9FE:	3E00      	**prefx    0x3E
     9FF:	0015      	ld         al, @0x3E00 <g_app_data>
     A00:	0384      	cmp        al, #+0x3
     A01:	04F4      	beq        +0x4 <HandleShortButtonPress+0x8:0xA05[p]>
     A02:	0584      	cmp        al, #+0x5
     A03:	07F0      	bne        +0x7 <HandleShortButtonPress+0xD:0xA0A[p]>
     A04:	03E0      	bra        +0x3 <HandleShortButtonPress+0xA:0xA07[p]>
    {
        case app_state_connected:
            /* Disconnect from the connected host */
            SetState(app_state_disconnecting);
     A05:	0414      	ld         al, #+0x4
     A06:	02E0      	bra        +0x2 <HandleShortButtonPress+0xB:0xA08[p]>
             
        break;

        case app_state_idle:
            /* Trigger fast advertisements */
            SetState(app_state_fast_advertising);
     A07:	0114      	ld         al, #+0x1
     A08:	FF00      	**prefx    0xFF
     A09:	5A9C      	bsr        -0xA6 <SetState:0x963[p]>
            /* Ignore in remaining states */
        break;

    }

}
     A0A:	010F      	leave      #+0x1

0x00000A0B <AppProcessLmEvent>:
 *  RETURNS
 *      TRUE if the app has finished with the event data; the control layer
 *      will free the buffer.
 *----------------------------------------------------------------------------*/
bool AppProcessLmEvent(lm_event_code event_code, LM_EVENT_T *p_event_data)
{
     A0B:	050B      	enter      #+0x5
     A0C:	0323      	st         ah, @(+0x3, y)
    switch (event_code)
     A0D:	0B00      	**prefx    0xB
     A0E:	9C84      	cmp        al, #+0xA9C
     A0F:	0200      	**prefx    0x2
     A10:	90F4      	beq        +0x190 <L0+0x170:0xBA0[p]>
     A11:	0B00      	**prefx    0xB
     A12:	9D84      	cmp        al, #+0xA9D
     A13:	16F8      	bcc        +0x16 <AppProcessLmEvent+0x1E:0xA29[p]>
     A14:	0B00      	**prefx    0xB
     A15:	8084      	cmp        al, #+0xA80
     A16:	2EF4      	beq        +0x2E <L0+0x14:0xA44[p]>
     A17:	0B00      	**prefx    0xB
     A18:	8184      	cmp        al, #+0xA81
     A19:	08F8      	bcc        +0x8 <AppProcessLmEvent+0x16:0xA21[p]>
     A1A:	0584      	cmp        al, #+0x5
     A1B:	0200      	**prefx    0x2
     A1C:	A5F4      	beq        +0x1A5 <L0+0x191:0xBC1[p]>
     A1D:	3E84      	cmp        al, #+0x3E
     A1E:	0200      	**prefx    0x2
     A1F:	E2F0      	bne        +0x1E2 <L0+0x1D1:0xC01[p]>
     A20:	2FE0      	bra        +0x2F <L0+0x1F:0xA4F[p]>
     A21:	0B00      	**prefx    0xB
     A22:	8284      	cmp        al, #+0xA82
     A23:	6EF4      	beq        +0x6E <L0+0x61:0xA91[p]>
     A24:	0B00      	**prefx    0xB
     A25:	8484      	cmp        al, #+0xA84
     A26:	0200      	**prefx    0x2
     A27:	DAF0      	bne        +0x1DA <L0+0x1D1:0xC01[p]>
     A28:	35E0      	bra        +0x35 <L0+0x2D:0xA5D[p]>
     A29:	0B00      	**prefx    0xB
     A2A:	CA84      	cmp        al, #+0xACA
     A2B:	0100      	**prefx    0x1
     A2C:	20F4      	beq        +0x120 <L0+0x11C:0xB4C[p]>
     A2D:	0B00      	**prefx    0xB
     A2E:	CB84      	cmp        al, #+0xACB
     A2F:	0BF8      	bcc        +0xB <L0+0xA:0xA3A[p]>
     A30:	0B00      	**prefx    0xB
     A31:	C084      	cmp        al, #+0xAC0
     A32:	0100      	**prefx    0x1
     A33:	CAF4      	beq        +0xCA <L0+0xCD:0xAFD[p]>
     A34:	0B00      	**prefx    0xB
     A35:	C384      	cmp        al, #+0xAC3
     A36:	0200      	**prefx    0x2
     A37:	CAF0      	bne        +0x1CA <L0+0x1D1:0xC01[p]>
     A38:	0100      	**prefx    0x1
     A39:	98E0      	bra        +0x98 <L0+0xA1:0xAD1[p]>
     A3A:	0B00      	**prefx    0xB
     A3B:	E984      	cmp        al, #+0xAE9
     A3C:	0100      	**prefx    0x1
     A3D:	24F4      	beq        +0x124 <L0+0x131:0xB61[p]>
     A3E:	0B00      	**prefx    0xB
     A3F:	EA84      	cmp        al, #+0xAEA
     A40:	0200      	**prefx    0x2
     A41:	C0F0      	bne        +0x1C0 <L0+0x1D1:0xC01[p]>
     A42:	0100      	**prefx    0x1
     A43:	41E0      	bra        +0x141 <L0+0x154:0xB84[p]>
 *      Nothing
 *----------------------------------------------------------------------------*/
static void handleSignalGattAddDbCfm(GATT_ADD_DB_CFM_T *p_event_data)
{
    /* Handle signal as per current state */
    switch(g_app_data.state)
     A44:	3E00      	**prefx    0x3E
     A45:	0099      	tst        @0x3E00 <g_app_data>
     A46:	0200      	**prefx    0x2
     A47:	B7F0      	bne        +0x1B7 <L0+0x1CE:0xBFE[p]>
    {
        case app_state_init:
        {
            if(p_event_data->result == sys_status_success)
     A48:	031B      	ld         x, @(+0x3, y)
     A49:	019A      	tst        @(+0x1, x)
     A4A:	0200      	**prefx    0x2
     A4B:	ADF4      	beq        +0x1AD <L0+0x1C8:0xBF8[p]>
                SetState(app_state_fast_advertising);
            }
            else
            {
                /* This should never happen */
                ReportPanic(app_panic_db_registration);
     A4C:	0314      	ld         al, #+0x3
     A4D:	0200      	**prefx    0x2
     A4E:	B1E0      	bra        +0x1B1 <L0+0x1CF:0xBFF[p]>
 *----------------------------------------------------------------------------*/
static void handleSignalLmEvConnectionComplete(
                                     LM_EV_CONNECTION_COMPLETE_T *p_event_data)
{
    /* Store the connection parameters. */
    g_app_data.conn_interval = p_event_data->data.conn_interval;
     A4F:	031B      	ld         x, @(+0x3, y)
     A50:	091A      	ld         x, @(+0x9, x)
     A51:	3E00      	**prefx    0x3E
     A52:	1B29      	st         x, @0x3E1B <g_app_data+0x1B>
    g_app_data.conn_latency = p_event_data->data.conn_latency;
     A53:	031B      	ld         x, @(+0x3, y)
     A54:	0A1A      	ld         x, @(+0xA, x)
     A55:	3E00      	**prefx    0x3E
     A56:	1C29      	st         x, @0x3E1C <g_app_data+0x1C>
    g_app_data.conn_timeout = p_event_data->data.supervision_timeout;
     A57:	031B      	ld         x, @(+0x3, y)
     A58:	0B1A      	ld         x, @(+0xB, x)
     A59:	3E00      	**prefx    0x3E
     A5A:	1D29      	st         x, @0x3E1D <g_app_data+0x1D>
     A5B:	0200      	**prefx    0x2
     A5C:	A5E0      	bra        +0x1A5 <L0+0x1D1:0xC01[p]>
 *  RETURNS
 *      Nothing
 *----------------------------------------------------------------------------*/
static void handleSignalGattCancelConnectCfm(void)
{
    if(g_app_data.pairing_button_pressed)
     A5D:	3E00      	**prefx    0x3E
     A5E:	1899      	tst        @0x3E18 <g_app_data+0x18>
     A5F:	14F4      	beq        +0x14 <L0+0x43:0xA73[p]>
    {
        /* Pairing removal has been initiated by the user */
        g_app_data.pairing_button_pressed = FALSE;
     A60:	0014      	ld         al, #+0x0
     A61:	3E00      	**prefx    0x3E
     A62:	1825      	st         al, @0x3E18 <g_app_data+0x18>

        /* Disable white list */
        g_app_data.enable_white_list = FALSE;
     A63:	3E00      	**prefx    0x3E
     A64:	1A25      	st         al, @0x3E1A <g_app_data+0x1A>

        /* Reset and clear the white list */
        LsResetWhiteList();
     A65:	0100      	**prefx    0x1
     A66:	8700      	**prefx    0x87
     A67:	1A9C      	bsr        +0x871A <LsResetWhiteList:0x9181[p]>

        /* Trigger fast advertisements */
        if(g_app_data.state == app_state_fast_advertising)
     A68:	3E00      	**prefx    0x3E
     A69:	0015      	ld         al, @0x3E00 <g_app_data>
     A6A:	0184      	cmp        al, #+0x1
     A6B:	0200      	**prefx    0x2
     A6C:	8CF0      	bne        +0x18C <L0+0x1C8:0xBF8[p]>
        {
            GattTriggerFastAdverts(&g_app_data.bonded_bd_addr);
     A6D:	3E00      	**prefx    0x3E
     A6E:	0814      	ld         al, #+0x3E08
     A6F:	FD00      	**prefx    0xFD
     A70:	809C      	bsr        -0x380 <GattTriggerFastAdverts:0x6F0[p]>
     A71:	0200      	**prefx    0x2
     A72:	8FE0      	bra        +0x18F <L0+0x1D1:0xC01[p]>
         *    BONDED_DEVICE_ADVERT_TIMEOUT_VALUE seconds), it will do fast
         *    advertising without any white list.
         *
         * 2. Slow advertising for SLOW_CONNECTION_ADVERT_TIMEOUT_VALUE seconds
         */
        switch(g_app_data.state)
     A73:	3E00      	**prefx    0x3E
     A74:	0015      	ld         al, @0x3E00 <g_app_data>
     A75:	0184      	cmp        al, #+0x1
     A76:	06F4      	beq        +0x6 <L0+0x4C:0xA7C[p]>
     A77:	0284      	cmp        al, #+0x2
     A78:	0200      	**prefx    0x2
     A79:	85F0      	bne        +0x185 <L0+0x1CE:0xBFE[p]>
     A7A:	0100      	**prefx    0x1
     A7B:	7FE0      	bra        +0x17F <L0+0x1CA:0xBFA[p]>
        {
            case app_state_fast_advertising:
            {
                bool fastConns = FALSE;

                if(g_app_data.enable_white_list == TRUE)
     A7C:	3E00      	**prefx    0x3E
     A7D:	1A15      	ld         al, @0x3E1A <g_app_data+0x1A>
     A7E:	0184      	cmp        al, #+0x1
     A7F:	0FF0      	bne        +0xF <L0+0x5E:0xA8E[p]>
                {
                    /* Bonded device advertisements stopped. Reset the white
                     * list
                     */
                    if(LsDeleteWhiteListDevice(&g_app_data.bonded_bd_addr)
     A80:	3E00      	**prefx    0x3E
     A81:	0814      	ld         al, #+0x3E08
     A82:	0100      	**prefx    0x1
     A83:	8700      	**prefx    0x87
     A84:	EB9C      	bsr        +0x86EB <LsDeleteWhiteListDevice:0x916F[p]>
     A85:	E199      	tst        @0xFFE1 <register al>
     A86:	04F4      	beq        +0x4 <L0+0x5A:0xA8A[p]>
                        != ls_err_none)
                    {
                        ReportPanic(app_panic_delete_whitelist);
     A87:	0714      	ld         al, #+0x7
     A88:	FF00      	**prefx    0xFF
     A89:	AF9C      	bsr        -0x151 <ReportPanic:0x938[p]>
                    }

                    /* Case of stopping advertisements for the bonded device 
                     * at the expiry of BONDED_DEVICE_ADVERT_TIMEOUT_VALUE timer
                     */
                    g_app_data.enable_white_list = FALSE;
     A8A:	0018      	ld         x, #+0x0
     A8B:	3E00      	**prefx    0x3E
     A8C:	1A29      	st         x, @0x3E1A <g_app_data+0x1A>
     A8D:	3DE0      	bra        +0x3D <L0+0x9A:0xACA[p]>

                    /* Remain in same state */
                }
                else
                {
                    SetState(app_state_slow_advertising);
     A8E:	0214      	ld         al, #+0x2
     A8F:	0100      	**prefx    0x1
     A90:	6BE0      	bra        +0x16B <L0+0x1CB:0xBFB[p]>
 *      Nothing
 *----------------------------------------------------------------------------*/
static void handleSignalGattConnectCfm(GATT_CONNECT_CFM_T *p_event_data)
{
    /* Handle signal as per current state */
    switch(g_app_data.state)
     A91:	3E00      	**prefx    0x3E
     A92:	0011      	ld         ah, @0x3E00 <g_app_data>
     A93:	E015      	ld         al, @0xFFE0 <register ah>
     A94:	FF34      	add        al, #-0x1
     A95:	0284      	cmp        al, #+0x2
     A96:	0100      	**prefx    0x1
     A97:	67F8      	bcc        +0x167 <L0+0x1CE:0xBFE[p]>
    {
        case app_state_fast_advertising:   /* FALLTHROUGH */
        case app_state_slow_advertising:
        {
            if(p_event_data->result == sys_status_success)
     A98:	031B      	ld         x, @(+0x3, y)
     A99:	079A      	tst        @(+0x7, x)
     A9A:	2DF0      	bne        +0x2D <L0+0x97:0xAC7[p]>
            {
                /* Store received UCID */
                g_app_data.st_ucid = p_event_data->cid;
     A9B:	0616      	ld         al, @(+0x6, x)
     A9C:	3E00      	**prefx    0x3E
     A9D:	0625      	st         al, @0x3E06 <g_app_data+0x6>

                /* Store connected BD Address */
                g_app_data.con_bd_addr = p_event_data->bd_addr;
     A9E:	0514      	ld         al, #+0x5
     A9F:	3E00      	**prefx    0x3E
     AA0:	0110      	ld         ah, #+0x3E01
     AA1:	0138      	add        x, #+0x1
     AA2:	FD09      	bc2        

                if(g_app_data.bonded && 
     AA3:	3E00      	**prefx    0x3E
     AA4:	0799      	tst        @0x3E07 <g_app_data+0x7>
     AA5:	19F4      	beq        +0x19 <L0+0x8E:0xABE[p]>
     AA6:	3E00      	**prefx    0x3E
     AA7:	0814      	ld         al, #+0x3E08
     AA8:	FB00      	**prefx    0xFB
     AA9:	329C      	bsr        -0x4CE <GattIsAddressResolvableRandom:0x5DB[p]>
     AAA:	E199      	tst        @0xFFE1 <register al>
     AAB:	13F4      	beq        +0x13 <L0+0x8E:0xABE[p]>
     AAC:	031B      	ld         x, @(+0x3, y)
     AAD:	0138      	add        x, #+0x1
     AAE:	032B      	st         x, @(+0x3, y)
     AAF:	0114      	ld         al, #+0x1
     AB0:	0027      	st         al, @(0x0, y)
     AB1:	0818      	ld         x, #+0x8
     AB2:	012B      	st         x, @(+0x1, y)
     AB3:	0317      	ld         al, @(+0x3, y)
     AB4:	3E00      	**prefx    0x3E
     AB5:	0F10      	ld         ah, #+0x3E0F
     AB6:	0100      	**prefx    0x1
     AB7:	8200      	**prefx    0x82
     AB8:	8D9C      	bsr        +0x818D <SMPrivacyMatchAddress:0x8C45[p]>
     AB9:	E199      	tst        @0xFFE1 <register al>
     ABA:	04E8      	bpl        +0x4 <L0+0x8E:0xABE[p]>
                    /* Application was bonded to a remote device using 
                     * resolvable random address and application has failed 
                     * to resolve the remote device address to which we just 
                     * connected, so disconnect and start advertising again
                     */
                    SetState(app_state_disconnecting);
     ABB:	0414      	ld         al, #+0x4
     ABC:	0100      	**prefx    0x1
     ABD:	3EE0      	bra        +0x13E <L0+0x1CB:0xBFB[p]>
                     *   support Resolvable Random address OR
                     * - If the device is bonded and connected host supports 
                     *   Resolvable Random address and the address gets resolved
                     *   using the stored IRK key
                     */
                    SetState(app_state_connected);
     ABE:	0314      	ld         al, #+0x3
     ABF:	FF00      	**prefx    0xFF
     AC0:	A39C      	bsr        -0x15D <SetState:0x963[p]>
                     * comply with the application's preferred connection 
                     * parameters and the timer is not running, start a timer
                     * to trigger the Connection Parameter Update procedure.
                     */

                    if(g_app_data.con_param_update_tid == TIMER_INVALID)
     AC1:	3E00      	**prefx    0x3E
     AC2:	0E99      	tst        @0x3E0E <g_app_data+0xE>
     AC3:	0100      	**prefx    0x1
     AC4:	3DF0      	bne        +0x13D <L0+0x1D1:0xC01[p]>
     AC5:	0100      	**prefx    0x1
     AC6:	D7E0      	bra        +0xD7 <L0+0x16D:0xB9D[p]>
                }
            }
            else
            {
                /* Connection failure - Trigger fast advertisements */
                if(g_app_data.state == app_state_slow_advertising)
     AC7:	0280      	cmp        ah, #+0x2
     AC8:	0100      	**prefx    0x1
     AC9:	2FF4      	beq        +0x12F <L0+0x1C8:0xBF8[p]>
                else
                {
                    /* Already in app_state_fast_advertising state, so just 
                     * trigger fast advertisements
                     */
                    GattStartAdverts(&g_app_data.bonded_bd_addr, TRUE);
     ACA:	3E00      	**prefx    0x3E
     ACB:	0814      	ld         al, #+0x3E08
     ACC:	0110      	ld         ah, #+0x1
     ACD:	FC00      	**prefx    0xFC
     ACE:	039C      	bsr        -0x3FD <GattStartAdverts:0x6D1[p]>
     ACF:	0100      	**prefx    0x1
     AD0:	31E0      	bra        +0x131 <L0+0x1D1:0xC01[p]>
 *      Nothing
 *----------------------------------------------------------------------------*/
static void handleSignalSmKeysInd(SM_KEYS_IND_T *p_event_data)
{
    /* Handle signal as per current state */
    switch(g_app_data.state)
     AD1:	3E00      	**prefx    0x3E
     AD2:	0015      	ld         al, @0x3E00 <g_app_data>
     AD3:	0384      	cmp        al, #+0x3
     AD4:	0100      	**prefx    0x1
     AD5:	29F0      	bne        +0x129 <L0+0x1CE:0xBFE[p]>
        {

            /* Store the diversifier which will be used for accepting/rejecting
             * the encryption requests.
             */
            g_app_data.diversifier = (p_event_data->keys)->div;
     AD6:	031B      	ld         x, @(+0x3, y)
     AD7:	0616      	ld         al, @(+0x6, x)
     AD8:	E119      	ld         x, @0xFFE1 <register al>
     AD9:	0216      	ld         al, @(+0x2, x)
     ADA:	3E00      	**prefx    0x3E
     ADB:	0D25      	st         al, @0x3E0D <g_app_data+0xD>

            /* Write the new diversifier to NVM */
            Nvm_Write(&g_app_data.diversifier,
     ADC:	0714      	ld         al, #+0x7
     ADD:	0027      	st         al, @(0x0, y)
     ADE:	3E00      	**prefx    0x3E
     ADF:	0D14      	ld         al, #+0x3E0D
     AE0:	0110      	ld         ah, #+0x1
     AE1:	FD00      	**prefx    0xFD
     AE2:	209C      	bsr        -0x2E0 <Nvm_Write:0x802[p]>

            /* Store IRK if the connected host is using random resolvable 
             * address. IRK is used afterwards to validate the identity of 
             * connected host 
             */
            if(GattIsAddressResolvableRandom(&g_app_data.con_bd_addr)) 
     AE3:	3E00      	**prefx    0x3E
     AE4:	0114      	ld         al, #+0x3E01
     AE5:	FB00      	**prefx    0xFB
     AE6:	F59C      	bsr        -0x50B <GattIsAddressResolvableRandom:0x5DB[p]>
     AE7:	E199      	tst        @0xFFE1 <register al>
     AE8:	0100      	**prefx    0x1
     AE9:	18F4      	beq        +0x118 <L0+0x1D1:0xC01[p]>
            {
                MemCopy(g_app_data.irk, 
     AEA:	031B      	ld         x, @(+0x3, y)
     AEB:	061A      	ld         x, @(+0x6, x)
     AEC:	E315      	ld         al, @0xFFE3 <register uxl>
     AED:	1034      	add        al, #+0x10
     AEE:	F825      	st         al, @0xFFF8 <(scratchpad)>
     AEF:	0814      	ld         al, #+0x8
     AF0:	3E00      	**prefx    0x3E
     AF1:	0F10      	ld         ah, #+0x3E0F
     AF2:	F819      	ld         x, @0xFFF8 <(scratchpad)>
     AF3:	FD09      	bc2        
                        MAX_WORDS_IRK);

                /* If bonded device address is resolvable random
                 * then store IRK to NVM 
                 */
                Nvm_Write(g_app_data.irk, 
     AF4:	0818      	ld         x, #+0x8
     AF5:	002B      	st         x, @(0x0, y)
     AF6:	3E00      	**prefx    0x3E
     AF7:	0F14      	ld         al, #+0x3E0F
     AF8:	0810      	ld         ah, #+0x8
     AF9:	FD00      	**prefx    0xFD
     AFA:	089C      	bsr        -0x2F8 <Nvm_Write:0x802[p]>
     AFB:	0100      	**prefx    0x1
     AFC:	05E0      	bra        +0x105 <L0+0x1D1:0xC01[p]>
static void handleSignalSmSimplePairingCompleteInd(
                                 SM_SIMPLE_PAIRING_COMPLETE_IND_T *p_event_data)
{

    /* Handle signal as per current state */
    switch(g_app_data.state)
     AFD:	3E00      	**prefx    0x3E
     AFE:	0015      	ld         al, @0x3E00 <g_app_data>
     AFF:	0384      	cmp        al, #+0x3
     B00:	0100      	**prefx    0x1
     B01:	00F0      	bne        +0x100 <L0+0x1D1:0xC01[p]>
    {
        case app_state_connected:
        {
            if(p_event_data->status == sys_status_success)
     B02:	031B      	ld         x, @(+0x3, y)
     B03:	069A      	tst        @(+0x6, x)
     B04:	2BF0      	bne        +0x2B <L0+0xFF:0xB2F[p]>
            {
                /* Store bonded host information to NVM. This includes
                 * application and service specific information.
                 */
                g_app_data.bonded = TRUE;
     B05:	0114      	ld         al, #+0x1
     B06:	3E00      	**prefx    0x3E
     B07:	0725      	st         al, @0x3E07 <g_app_data+0x7>
                g_app_data.bonded_bd_addr = p_event_data->bd_addr;
     B08:	0514      	ld         al, #+0x5
     B09:	3E00      	**prefx    0x3E
     B0A:	0810      	ld         ah, #+0x3E08
     B0B:	0138      	add        x, #+0x1
     B0C:	FD09      	bc2        

                /* Store bonded host typed bd address to NVM */

                /* Write one word bonded flag */
                Nvm_Write((uint16*)&g_app_data.bonded, 
     B0D:	0118      	ld         x, #+0x1
     B0E:	002B      	st         x, @(0x0, y)
     B0F:	3E00      	**prefx    0x3E
     B10:	0714      	ld         al, #+0x3E07
     B11:	0110      	ld         ah, #+0x1
     B12:	FD00      	**prefx    0xFD
     B13:	EF9C      	bsr        -0x311 <Nvm_Write:0x802[p]>
                          sizeof(g_app_data.bonded), 
                          NVM_OFFSET_BONDED_FLAG);

                /* Write typed bd address of bonded host */
                Nvm_Write((uint16*)&g_app_data.bonded_bd_addr, 
     B14:	0214      	ld         al, #+0x2
     B15:	0027      	st         al, @(0x0, y)
     B16:	3E00      	**prefx    0x3E
     B17:	0814      	ld         al, #+0x3E08
     B18:	0510      	ld         ah, #+0x5
     B19:	FD00      	**prefx    0xFD
     B1A:	E89C      	bsr        -0x318 <Nvm_Write:0x802[p]>

                /* Configure white list with the Bonded host address only 
                 * if the connected host doesn't support random resolvable
                 * addresses
                 */
                if(!GattIsAddressResolvableRandom(&g_app_data.bonded_bd_addr))
     B1B:	3E00      	**prefx    0x3E
     B1C:	0814      	ld         al, #+0x3E08
     B1D:	FB00      	**prefx    0xFB
     B1E:	BD9C      	bsr        -0x543 <GattIsAddressResolvableRandom:0x5DB[p]>
     B1F:	E199      	tst        @0xFFE1 <register al>
     B20:	0BF0      	bne        +0xB <L0+0xFB:0xB2B[p]>
                     * support Reconnection Address. In future, if the
                     * application is enhanced to support Reconnection Address,
                     * make sure that we don't add Reconnection Address to the
                     * white list
                     */
                    if(LsAddWhiteListDevice(&g_app_data.bonded_bd_addr) !=
     B21:	3E00      	**prefx    0x3E
     B22:	0814      	ld         al, #+0x3E08
     B23:	0100      	**prefx    0x1
     B24:	8600      	**prefx    0x86
     B25:	539C      	bsr        +0x8653 <LsAddWhiteListDevice:0x9178[p]>
     B26:	E199      	tst        @0xFFE1 <register al>
     B27:	04F4      	beq        +0x4 <L0+0xFB:0xB2B[p]>
                        ls_err_none)
                    {
                        ReportPanic(app_panic_add_whitelist);
     B28:	0814      	ld         al, #+0x8
     B29:	FE00      	**prefx    0xFE
     B2A:	0E9C      	bsr        -0x1F2 <ReportPanic:0x938[p]>

                /* If the devices are bonded then send notification to all 
                 * registered services for the same so that they can store
                 * required data to NVM.
                 */
                BatteryBondingNotify();
     B2B:	F900      	**prefx    0xF9
     B2C:	989C      	bsr        -0x768 <BatteryBondingNotify:0x3C4[p]>
     B2D:	0100      	**prefx    0x1
     B2E:	D3E0      	bra        +0xD3 <L0+0x1D1:0xC01[p]>
                 }
#else /* !PAIRING_SUPPORT */
                /* If application is already bonded to this host and pairing 
                 * fails, remove device from the white list.
                 */
                if(g_app_data.bonded)
     B2F:	3E00      	**prefx    0x3E
     B30:	0799      	tst        @0x3E07 <g_app_data+0x7>
     B31:	0EF4      	beq        +0xE <L0+0x10F:0xB3F[p]>
                {
                    if(LsDeleteWhiteListDevice(&g_app_data.bonded_bd_addr) != 
     B32:	3E00      	**prefx    0x3E
     B33:	0814      	ld         al, #+0x3E08
     B34:	0100      	**prefx    0x1
     B35:	8600      	**prefx    0x86
     B36:	399C      	bsr        +0x8639 <LsDeleteWhiteListDevice:0x916F[p]>
     B37:	E199      	tst        @0xFFE1 <register al>
     B38:	04F4      	beq        +0x4 <L0+0x10C:0xB3C[p]>
                                        ls_err_none)
                    {
                        ReportPanic(app_panic_delete_whitelist);
     B39:	0714      	ld         al, #+0x7
     B3A:	FE00      	**prefx    0xFE
     B3B:	FD9C      	bsr        -0x203 <ReportPanic:0x938[p]>
                    }

                    g_app_data.bonded = FALSE;
     B3C:	0018      	ld         x, #+0x0
     B3D:	3E00      	**prefx    0x3E
     B3E:	0729      	st         x, @0x3E07 <g_app_data+0x7>
                 * own application. So reset all other variables except the
                 * connection specific ones.
                 */

                /* Update bonded status to NVM */
                Nvm_Write((uint16*)&g_app_data.bonded,
     B3F:	0114      	ld         al, #+0x1
     B40:	0027      	st         al, @(0x0, y)
     B41:	3E00      	**prefx    0x3E
     B42:	0714      	ld         al, #+0x3E07
     B43:	0110      	ld         ah, #+0x1
     B44:	FD00      	**prefx    0xFD
     B45:	BD9C      	bsr        -0x343 <Nvm_Write:0x802[p]>
                          NVM_OFFSET_BONDED_FLAG);

                /* Initialise the data of used services as the device is no 
                 * longer bonded to the remote host.
                 */
                GapDataInit();
     B46:	FA00      	**prefx    0xFA
     B47:	C09C      	bsr        -0x640 <BSS_SIZE:0x507[p]>
                BatteryDataInit();
     B48:	F800      	**prefx    0xF8
     B49:	739C      	bsr        -0x78D <BatteryDataInit:0x3BC[p]>
     B4A:	0100      	**prefx    0x1
     B4B:	B6E0      	bra        +0xB6 <L0+0x1D1:0xC01[p]>
 *      Nothing
 *----------------------------------------------------------------------------*/
static void handleSignalSmDivApproveInd(SM_DIV_APPROVE_IND_T *p_event_data)
{
    /* Handle signal as per current state */
    switch(g_app_data.state)
     B4C:	3E00      	**prefx    0x3E
     B4D:	0015      	ld         al, @0x3E00 <g_app_data>
     B4E:	0384      	cmp        al, #+0x3
     B4F:	0100      	**prefx    0x1
     B50:	AEF0      	bne        +0xAE <L0+0x1CE:0xBFE[p]>
            /* Check whether the application is still bonded (bonded flag gets
             * reset upon 'connect' button press by the user). Then check 
             * whether the diversifier is the same as the one stored by the 
             * application
             */
            if(g_app_data.bonded)
     B51:	3E00      	**prefx    0x3E
     B52:	0799      	tst        @0x3E07 <g_app_data+0x7>
     B53:	07F4      	beq        +0x7 <L0+0x12A:0xB5A[p]>
     B54:	0010      	ld         ah, #+0x0
     B55:	3E00      	**prefx    0x3E
     B56:	0D15      	ld         al, @0x3E0D <g_app_data+0xD>
     B57:	031B      	ld         x, @(+0x3, y)
     B58:	0286      	cmp        al, @(+0x2, x)
     B59:	02F4      	beq        +0x2 <L0+0x12B:0xB5B[p]>
     B5A:	0110      	ld         ah, #+0x1
                {
                    approve_div = SM_DIV_APPROVED;
                }
            }

            SMDivApproval(p_event_data->cid, approve_div);
     B5B:	031B      	ld         x, @(+0x3, y)
     B5C:	0116      	ld         al, @(+0x1, x)
     B5D:	F600      	**prefx    0xF6
     B5E:	479C      	bsr        -0x9B9 <SMDivApproval:0x1A5[p]>
     B5F:	0100      	**prefx    0x1
     B60:	A1E0      	bra        +0xA1 <L0+0x1D1:0xC01[p]>
 *----------------------------------------------------------------------------*/
static void handleSignalLsConnParamUpdateCfm(
                            LS_CONNECTION_PARAM_UPDATE_CFM_T *p_event_data)
{
    /* Handle signal as per current state */
    switch(g_app_data.state)
     B61:	3E00      	**prefx    0x3E
     B62:	0015      	ld         al, @0x3E00 <g_app_data>
     B63:	0384      	cmp        al, #+0x3
     B64:	0100      	**prefx    0x1
     B65:	99F0      	bne        +0x99 <L0+0x1CE:0xBFE[p]>
             * request sent from the slave after encryption is enabled. If 
             * the request has failed, the device should send the same request
             * again only after Tgap(conn_param_timeout). Refer Bluetooth 4.0
             * spec Vol 3 Part C, Section 9.3.9 and profile spec.
             */
            if ((p_event_data->status != ls_err_none) &&
     B66:	031B      	ld         x, @(+0x3, y)
     B67:	019A      	tst        @(+0x1, x)
     B68:	0100      	**prefx    0x1
     B69:	98F4      	beq        +0x98 <L0+0x1D1:0xC01[p]>
     B6A:	3E00      	**prefx    0x3E
     B6B:	1715      	ld         al, @0x3E17 <g_app_data+0x17>
     B6C:	0284      	cmp        al, #+0x2
     B6D:	0100      	**prefx    0x1
     B6E:	93F8      	bcc        +0x93 <L0+0x1D1:0xC01[p]>
                    (g_app_data.num_conn_update_req < 
                    MAX_NUM_CONN_PARAM_UPDATE_REQS))
            {
                /* Delete timer if running */
                if (g_app_data.con_param_update_tid != TIMER_INVALID)
     B6F:	3E00      	**prefx    0x3E
     B70:	0E15      	ld         al, @0x3E0E <g_app_data+0xE>
     B71:	04F4      	beq        +0x4 <L0+0x145:0xB75[p]>
                {
                    TimerDelete(g_app_data.con_param_update_tid);
     B72:	0100      	**prefx    0x1
     B73:	D500      	**prefx    0xD5
     B74:	CB9C      	bsr        +0xD4CB <TimerDelete:0xE03F[p]>
                }

                g_app_data.con_param_update_tid = TimerCreate(
     B75:	0114      	ld         al, #+0x1
     B76:	0027      	st         al, @(0x0, y)
     B77:	0900      	**prefx    0x9
     B78:	3B18      	ld         x, #+0x93B
     B79:	012B      	st         x, @(+0x1, y)
     B7A:	0200      	**prefx    0x2
     B7B:	C910      	ld         ah, #+0x1C9
     B7C:	C400      	**prefx    0xC4
     B7D:	8014      	ld         al, #-0x3C80
     B7E:	0100      	**prefx    0x1
     B7F:	D500      	**prefx    0xD5
     B80:	7B9C      	bsr        +0xD57B <TimerCreate:0xE0FB[p]>
     B81:	3E00      	**prefx    0x3E
     B82:	0E25      	st         al, @0x3E0E <g_app_data+0xE>
     B83:	7EE0      	bra        +0x7E <L0+0x1D1:0xC01[p]>
static void handleSignalLsConnParamUpdateInd(
                                 LS_CONNECTION_PARAM_UPDATE_IND_T *p_event_data)
{

    /* Handle signal as per current state */
    switch(g_app_data.state)
     B84:	3E00      	**prefx    0x3E
     B85:	0015      	ld         al, @0x3E00 <g_app_data>
     B86:	0384      	cmp        al, #+0x3
     B87:	77F0      	bne        +0x77 <L0+0x1CE:0xBFE[p]>
    {

        case app_state_connected:
        {
            /* Delete timer if running */
            if (g_app_data.con_param_update_tid != TIMER_INVALID)
     B88:	3E00      	**prefx    0x3E
     B89:	0E15      	ld         al, @0x3E0E <g_app_data+0xE>
     B8A:	07F4      	beq        +0x7 <L0+0x161:0xB91[p]>
            {
                TimerDelete(g_app_data.con_param_update_tid);
     B8B:	0100      	**prefx    0x1
     B8C:	D500      	**prefx    0xD5
     B8D:	B29C      	bsr        +0xD4B2 <TimerDelete:0xE03F[p]>
                g_app_data.con_param_update_tid = TIMER_INVALID;
     B8E:	0014      	ld         al, #+0x0
     B8F:	3E00      	**prefx    0x3E
     B90:	0E25      	st         al, @0x3E0E <g_app_data+0xE>
            }

            /* Store the new connection parameters. */
            g_app_data.conn_interval = p_event_data->conn_interval;
     B91:	031B      	ld         x, @(+0x3, y)
     B92:	071A      	ld         x, @(+0x7, x)
     B93:	3E00      	**prefx    0x3E
     B94:	1B29      	st         x, @0x3E1B <g_app_data+0x1B>
            g_app_data.conn_latency = p_event_data->conn_latency;
     B95:	031B      	ld         x, @(+0x3, y)
     B96:	081A      	ld         x, @(+0x8, x)
     B97:	3E00      	**prefx    0x3E
     B98:	1C29      	st         x, @0x3E1C <g_app_data+0x1C>
            g_app_data.conn_timeout = p_event_data->supervision_timeout;
     B99:	031B      	ld         x, @(+0x3, y)
     B9A:	091A      	ld         x, @(+0x9, x)
     B9B:	3E00      	**prefx    0x3E
     B9C:	1D29      	st         x, @0x3E1D <g_app_data+0x1D>
            
            /* Connection parameters have been updated. Check if new parameters 
             * comply with application preferred parameters. If not, application
             * shall trigger Connection parameter update procedure.
             */
            appStartConnUpdateTimer();
     B9D:	FD00      	**prefx    0xFD
     B9E:	8A9C      	bsr        -0x376 <appStartConnUpdateTimer:0x828[p]>
     B9F:	62E0      	bra        +0x62 <L0+0x1D1:0xC01[p]>
 *----------------------------------------------------------------------------*/
static void handleSignalGattAccessInd(GATT_ACCESS_IND_T *p_event_data)
{

    /* Handle signal as per current state */
    switch(g_app_data.state)
     BA0:	3E00      	**prefx    0x3E
     BA1:	0015      	ld         al, @0x3E00 <g_app_data>
     BA2:	0384      	cmp        al, #+0x3
     BA3:	5BF0      	bne        +0x5B <L0+0x1CE:0xBFE[p]>
    {
        case app_state_connected:
        {
            /* Received GATT ACCESS IND with write access */
            if(p_event_data->flags == 
     BA4:	031B      	ld         x, @(+0x3, y)
     BA5:	0316      	ld         al, @(+0x3, x)
     BA6:	C000      	**prefx    0xC0
     BA7:	0284      	cmp        al, #-0x3FFE
     BA8:	05F0      	bne        +0x5 <L0+0x17D:0xBAD[p]>
                (ATT_ACCESS_WRITE | 
                 ATT_ACCESS_PERMISSION | 
                 ATT_ACCESS_WRITE_COMPLETE))
            {
                HandleAccessWrite(p_event_data);
     BA9:	E315      	ld         al, @0xFFE3 <register uxl>
     BAA:	FB00      	**prefx    0xFB
     BAB:	5E9C      	bsr        -0x4A2 <HandleAccessWrite:0x709[p]>
     BAC:	55E0      	bra        +0x55 <L0+0x1D1:0xC01[p]>
            }
            /* Received GATT ACCESS IND with read access */
            else if(p_event_data->flags == 
     BAD:	8000      	**prefx    0x80
     BAE:	0184      	cmp        al, #-0x7FFF
     BAF:	05F0      	bne        +0x5 <L0+0x184:0xBB4[p]>
                (ATT_ACCESS_READ | 
                ATT_ACCESS_PERMISSION))
            {
                HandleAccessRead(p_event_data);
     BB0:	0317      	ld         al, @(+0x3, y)
     BB1:	FC00      	**prefx    0xFC
     BB2:	849C      	bsr        -0x47C <HandleAccessRead:0x736[p]>
     BB3:	4EE0      	bra        +0x4E <L0+0x1D1:0xC01[p]>
            }
            else
            {
                /* No other request is supported */
                GattAccessRsp(p_event_data->cid, p_event_data->handle, 
     BB4:	031B      	ld         x, @(+0x3, y)
     BB5:	0116      	ld         al, @(+0x1, x)
     BB6:	0212      	ld         ah, @(+0x2, x)
     BB7:	0A00      	**prefx    0xA
     BB8:	0618      	ld         x, #+0xA06
     BB9:	002B      	st         x, @(0x0, y)
     BBA:	0018      	ld         x, #+0x0
     BBB:	012B      	st         x, @(+0x1, y)
     BBC:	022B      	st         x, @(+0x2, y)
     BBD:	0100      	**prefx    0x1
     BBE:	A500      	**prefx    0xA5
     BBF:	BF9C      	bsr        +0xA4BF <GattAccessRsp:0xB07E[p]>
     BC0:	41E0      	bra        +0x41 <L0+0x1D1:0xC01[p]>
static void handleSignalLmDisconnectComplete(
                HCI_EV_DATA_DISCONNECT_COMPLETE_T *p_event_data)
{

    /* Set UCID to INVALID_UCID */
    g_app_data.st_ucid = GATT_INVALID_UCID;
     BC1:	FF14      	ld         al, #-0x1
     BC2:	3E00      	**prefx    0x3E
     BC3:	0625      	st         al, @0x3E06 <g_app_data+0x6>

    /* Reset the connection parameter variables. */
    g_app_data.conn_interval = 0;
     BC4:	0018      	ld         x, #+0x0
     BC5:	3E00      	**prefx    0x3E
     BC6:	1B29      	st         x, @0x3E1B <g_app_data+0x1B>
    g_app_data.conn_latency = 0;
     BC7:	3E00      	**prefx    0x3E
     BC8:	1C29      	st         x, @0x3E1C <g_app_data+0x1C>
    g_app_data.conn_timeout = 0;
     BC9:	3E00      	**prefx    0x3E
     BCA:	1D29      	st         x, @0x3E1D <g_app_data+0x1D>
     * HCI_ERROR_CONN_TIMEOUT - Link Loss case
     * HCI_ERROR_CONN_TERM_LOCAL_HOST - Disconnect triggered by device
     * HCI_ERROR_OETC_* - Other end (i.e., remote host) terminated connection
     */
    /* Handle signal as per current state */
    switch(g_app_data.state)
     BCB:	3E00      	**prefx    0x3E
     BCC:	0015      	ld         al, @0x3E00 <g_app_data>
     BCD:	0384      	cmp        al, #+0x3
     BCE:	04F4      	beq        +0x4 <L0+0x1A2:0xBD2[p]>
     BCF:	0484      	cmp        al, #+0x4
     BD0:	2EF0      	bne        +0x2E <L0+0x1CE:0xBFE[p]>
     BD1:	03E0      	bra        +0x3 <L0+0x1A4:0xBD4[p]>
    {
        case app_state_connected:
            /* Initialise Application data instance */
            appDataInit();
     BD2:	FD00      	**prefx    0xFD
     BD3:	879C      	bsr        -0x379 <appDataInit:0x85A[p]>

        case app_state_disconnecting:
        {

            /* Link Loss Case */
            if(p_event_data->reason == HCI_ERROR_CONN_TIMEOUT)
     BD4:	031B      	ld         x, @(+0x3, y)
     BD5:	0312      	ld         ah, @(+0x3, x)
     BD6:	0880      	cmp        ah, #+0x8
     BD7:	21F4      	beq        +0x21 <L0+0x1C8:0xBF8[p]>
                /* Start undirected advertisements by moving to 
                 * app_state_fast_advertising state
                 */
                SetState(app_state_fast_advertising);
            }
            else if(p_event_data->reason == HCI_ERROR_CONN_TERM_LOCAL_HOST)
     BD8:	1680      	cmp        ah, #+0x16
     BD9:	1CF0      	bne        +0x1C <L0+0x1C5:0xBF5[p]>
            {

                if(g_app_data.state == app_state_connected)
     BDA:	3E00      	**prefx    0x3E
     BDB:	0015      	ld         al, @0x3E00 <g_app_data>
     BDC:	0384      	cmp        al, #+0x3
     BDD:	1BF4      	beq        +0x1B <L0+0x1C8:0xBF8[p]>
                }
                else
                {
                    /* Case when application has triggered disconnect */

                    if(g_app_data.bonded)
     BDE:	3E00      	**prefx    0x3E
     BDF:	0799      	tst        @0x3E07 <g_app_data+0x7>
     BE0:	18F4      	beq        +0x18 <L0+0x1C8:0xBF8[p]>
                         * procedure if it gets reconnected to a different 
                         * host, in which case device should trigger fast 
                         * advertisements after disconnecting from the last 
                         * connected host.
                         */
                        if(GattIsAddressResolvableRandom(
     BE1:	3E00      	**prefx    0x3E
     BE2:	0814      	ld         al, #+0x3E08
     BE3:	FA00      	**prefx    0xFA
     BE4:	F79C      	bsr        -0x609 <GattIsAddressResolvableRandom:0x5DB[p]>
     BE5:	E199      	tst        @0xFFE1 <register al>
     BE6:	14F4      	beq        +0x14 <L0+0x1CA:0xBFA[p]>
     BE7:	0114      	ld         al, #+0x1
     BE8:	0027      	st         al, @(0x0, y)
     BE9:	0818      	ld         x, #+0x8
     BEA:	012B      	st         x, @(+0x1, y)
     BEB:	3E00      	**prefx    0x3E
     BEC:	0114      	ld         al, #+0x3E01
     BED:	3E00      	**prefx    0x3E
     BEE:	0F10      	ld         ah, #+0x3E0F
     BEF:	0100      	**prefx    0x1
     BF0:	8000      	**prefx    0x80
     BF1:	549C      	bsr        +0x8054 <SMPrivacyMatchAddress:0x8C45[p]>
     BF2:	E199      	tst        @0xFFE1 <register al>
     BF3:	07E8      	bpl        +0x7 <L0+0x1CA:0xBFA[p]>
     BF4:	04E0      	bra        +0x4 <L0+0x1C8:0xBF8[p]>
                 * and disconnected. The application should be connectable 
                 * because the same remote device may want to reconnect and 
                 * bond. If not the application should be discoverable by other 
                 * devices.
                 */
                if(!g_app_data.bonded)
     BF5:	3E00      	**prefx    0x3E
     BF6:	0799      	tst        @0x3E07 <g_app_data+0x7>
     BF7:	03F0      	bne        +0x3 <L0+0x1CA:0xBFA[p]>
                {
                    SetState( app_state_fast_advertising);
     BF8:	0114      	ld         al, #+0x1
     BF9:	02E0      	bra        +0x2 <L0+0x1CB:0xBFB[p]>
                }
                else /* Case when disconnect is triggered by a bonded Host */
                {
                    SetState( app_state_idle);
     BFA:	0514      	ld         al, #+0x5
     BFB:	FD00      	**prefx    0xFD
     BFC:	679C      	bsr        -0x299 <SetState:0x963[p]>
     BFD:	04E0      	bra        +0x4 <L0+0x1D1:0xC01[p]>
        }
        break;
        
        default:
            /* Control should never come here */
            ReportPanic(app_panic_invalid_state);
     BFE:	0A14      	ld         al, #+0xA
     BFF:	FD00      	**prefx    0xFD
     C00:	389C      	bsr        -0x2C8 <ReportPanic:0x938[p]>
        break;

    }

    return TRUE;
}
     C01:	0114      	ld         al, #+0x1
     C02:	050F      	leave      #+0x5

0x00000C03 <InitAuthServiceData>:
 *      None.
 *
 *  RETURNS
 *      Nothing
 *----------------------------------------------------------------------------*/
extern void InitAuthServiceData(void) {
     C03:	010B      	enter      #+0x1
     C04:	3E00      	**prefx    0x3E
     C05:	3D18      	ld         x, #+0x3E3D
    uint16 i;
    
    for(i=0; i<AUTH_TOKEN_LENGTH; i++) {
        auth_token.input_token[i] = 0;
     C06:	0014      	ld         al, #+0x0
     C07:	0026      	st         al, @(0x0, x)
        auth_token.signed_token[i] = 0;
     C08:	1026      	st         al, @(+0x10, x)
     C09:	0138      	add        x, #+0x1
 *      Nothing
 *----------------------------------------------------------------------------*/
extern void InitAuthServiceData(void) {
    uint16 i;
    
    for(i=0; i<AUTH_TOKEN_LENGTH; i++) {
     C0A:	3E00      	**prefx    0x3E
     C0B:	4D88      	cmp        x, #+0x3E4D
     C0C:	FAF0      	bne        -0x6 <InitAuthServiceData+0x3:0xC06[p]>
        auth_token.input_token[i] = 0;
        auth_token.signed_token[i] = 0;
    }
}
     C0D:	010F      	leave      #+0x1

0x00000C0E <AuthCheckHandleRange>:
 *
 *  RETURNS
 *      TRUE if handle belongs to the Authentication Service, FALSE otherwise
 *----------------------------------------------------------------------------*/
extern bool AuthCheckHandleRange(uint16 handle)
{
     C0E:	0010      	ld         ah, #+0x0
     C0F:	1D84      	cmp        al, #+0x1D
     C10:	022C      	bcz        +0x2 <AuthCheckHandleRange+0x4:0xC12[p]>
     C11:	0110      	ld         ah, #+0x1
    return ((handle >= HANDLE_AUTH_SERVICE) &&
            (handle <= HANDLE_AUTH_SERVICE_END))
            ? TRUE : FALSE;
}
     C12:	E015      	ld         al, @0xFFE0 <register ah>
     C13:	00E2      	bra        0x0, x

0x00000C14 <AuthHandleAccessRead>:
    /* Send ACCESS RESPONSE */
    GattAccessRsp(p_ind->cid, p_ind->handle, rc, 0, NULL);

}

extern void AuthHandleAccessRead(GATT_ACCESS_IND_T *p_ind) {
     C14:	140B      	enter      #+0x14
     C15:	F825      	st         al, @0xFFF8 <(scratchpad)>
    uint16 length = 0;
    uint8 value[16];
    sys_status rc = sys_status_success;

    switch (p_ind->handle) {
     C16:	E119      	ld         x, @0xFFE1 <register al>
     C17:	0216      	ld         al, @(+0x2, x)
     C18:	2284      	cmp        al, #+0x22
     C19:	06F4      	beq        +0x6 <AuthHandleAccessRead+0xB:0xC1F[p]>
     C1A:	0014      	ld         al, #+0x0
     C1B:	F925      	st         al, @0xFFF9 <(scratchpad)>
     C1C:	0A00      	**prefx    0xA
     C1D:	0218      	ld         x, #+0xA02
     C1E:	0AE0      	bra        +0xA <AuthHandleAccessRead+0x14:0xC28[p]>
        case HANDLE_SIGNED_TOKEN:
            length = AUTH_TOKEN_LENGTH;
            MemCopy(value, auth_token.signed_token, length);
     C1F:	1014      	ld         al, #+0x10
     C20:	E411      	ld         ah, @0xFFE4 <register uy>
     C21:	0330      	add        ah, #+0x3
     C22:	3E00      	**prefx    0x3E
     C23:	4D18      	ld         x, #+0x3E4D
     C24:	FD09      	bc2        
     C25:	1014      	ld         al, #+0x10
     C26:	F925      	st         al, @0xFFF9 <(scratchpad)>
     C27:	0018      	ld         x, #+0x0
     C28:	FA29      	st         x, @0xFFFA <(scratchpad)>
            
        default:
            rc = gatt_status_read_not_permitted;
            break;        
    }
    GattAccessRsp(p_ind->cid, p_ind->handle, rc, length, value);
     C29:	F819      	ld         x, @0xFFF8 <(scratchpad)>
     C2A:	0116      	ld         al, @(+0x1, x)
     C2B:	0212      	ld         ah, @(+0x2, x)
     C2C:	FA19      	ld         x, @0xFFFA <(scratchpad)>
     C2D:	002B      	st         x, @(0x0, y)
     C2E:	F919      	ld         x, @0xFFF9 <(scratchpad)>
     C2F:	012B      	st         x, @(+0x1, y)
     C30:	E419      	ld         x, @0xFFE4 <register uy>
     C31:	0338      	add        x, #+0x3
     C32:	022B      	st         x, @(+0x2, y)
     C33:	0100      	**prefx    0x1
     C34:	A400      	**prefx    0xA4
     C35:	499C      	bsr        +0xA449 <GattAccessRsp:0xB07E[p]>
}
     C36:	140F      	leave      #+0x14

0x00000C37 <AuthHandleAccessWrite>:
 *
 *  RETURNS
 *      Nothing
 *----------------------------------------------------------------------------*/
extern void AuthHandleAccessWrite(GATT_ACCESS_IND_T *p_ind)
{
     C37:	040B      	enter      #+0x4
     C38:	F825      	st         al, @0xFFF8 <(scratchpad)>
    uint8 *p_value = p_ind->value;      /* New attribute value */
     C39:	E119      	ld         x, @0xFFE1 <register al>
     C3A:	061A      	ld         x, @(+0x6, x)
     C3B:	F929      	st         x, @0xFFF9 <(scratchpad)>
    sys_status rc = sys_status_success; /* Function status */
    uint16 length;

    switch(p_ind->handle) {
     C3C:	E119      	ld         x, @0xFFE1 <register al>
     C3D:	0216      	ld         al, @(+0x2, x)
     C3E:	2084      	cmp        al, #+0x20
     C3F:	05F4      	beq        +0x5 <AuthHandleAccessWrite+0xD:0xC44[p]>
     C40:	0A00      	**prefx    0xA
     C41:	0314      	ld         al, #+0xA03
     C42:	F925      	st         al, @0xFFF9 <(scratchpad)>
     C43:	19E0      	bra        +0x19 <AuthHandleAccessWrite+0x25:0xC5C[p]>
        case HANDLE_INPUT_TOKEN:
            length = AUTH_TOKEN_LENGTH > p_ind->size_value ? p_ind->size_value : AUTH_TOKEN_LENGTH;
            MemCopy(auth_token.input_token, p_value, length);
     C44:	F819      	ld         x, @0xFFF8 <(scratchpad)>
     C45:	0516      	ld         al, @(+0x5, x)
     C46:	1084      	cmp        al, #+0x10
     C47:	022C      	bcz        +0x2 <AuthHandleAccessWrite+0x12:0xC49[p]>
     C48:	1014      	ld         al, #+0x10
     C49:	3E00      	**prefx    0x3E
     C4A:	3D10      	ld         ah, #+0x3E3D
     C4B:	F919      	ld         x, @0xFFF9 <(scratchpad)>
     C4C:	FD09      	bc2        
     C4D:	3E00      	**prefx    0x3E
     C4E:	3D18      	ld         x, #+0x3E3D
AUTH_TOKEN_T auth_token;

static void signToken(void) {
    uint16 i;
    for (i=0; i<AUTH_TOKEN_LENGTH; i++) {
        auth_token.signed_token[i] = auth_token.input_token[i];
     C4F:	0016      	ld         al, @(0x0, x)
     C50:	1026      	st         al, @(+0x10, x)
     C51:	0138      	add        x, #+0x1
uint16 auth_service_cid;
AUTH_TOKEN_T auth_token;

static void signToken(void) {
    uint16 i;
    for (i=0; i<AUTH_TOKEN_LENGTH; i++) {
     C52:	3E00      	**prefx    0x3E
     C53:	4D88      	cmp        x, #+0x3E4D
     C54:	FBF0      	bne        -0x5 <AuthHandleAccessWrite+0x18:0xC4F[p]>
        auth_token.signed_token[i] = auth_token.input_token[i];
    }
    auth_token.signed_token[i-1]++;
     C55:	0F16      	ld         al, @(+0xF, x)
     C56:	0134      	add        al, #+0x1
    auth_token.signed_token[i-1]&=0x00FF;   // deal w/ XAP's weird rollover.
     C57:	0100      	**prefx    0x1
     C58:	FFC4      	and        al, #0xFF
     C59:	0F26      	st         al, @(+0xF, x)
     C5A:	0018      	ld         x, #+0x0
     C5B:	F929      	st         x, @0xFFF9 <(scratchpad)>
        break;

    }

    /* Send ACCESS RESPONSE */
    GattAccessRsp(p_ind->cid, p_ind->handle, rc, 0, NULL);
     C5C:	F819      	ld         x, @0xFFF8 <(scratchpad)>
     C5D:	0116      	ld         al, @(+0x1, x)
     C5E:	0212      	ld         ah, @(+0x2, x)
     C5F:	F919      	ld         x, @0xFFF9 <(scratchpad)>
     C60:	002B      	st         x, @(0x0, y)
     C61:	0018      	ld         x, #+0x0
     C62:	012B      	st         x, @(+0x1, y)
     C63:	022B      	st         x, @(+0x2, y)
     C64:	0100      	**prefx    0x1
     C65:	A400      	**prefx    0xA4
     C66:	189C      	bsr        +0xA418 <GattAccessRsp:0xB07E[p]>

}
     C67:	040F      	leave      #+0x4

0x00000C68 <SetLEDColor>:
                            PWM_PERIOD - duty, duty, PWM_HOLD_TIME,
                            PWM_PERIOD - duty, duty, PWM_HOLD_TIME,
                            0);
}

extern void SetLEDColor(uint8 red, uint8 green, uint8 blue) {
     C68:	0E0B      	enter      #+0xE
     C69:	0C23      	st         ah, @(+0xC, y)
    if ((red >> QUANTIZATION_ERROR) == 0)
     C6A:	E111      	ld         ah, @0xFFE1 <register al>
     C6B:	0009      	**unsigned
     C6C:	02A4      	lsr        #0x2
     C6D:	0B23      	st         ah, @(+0xB, y)
     C6E:	0AF0      	bne        +0xA <SetLEDColor+0x10:0xC78[p]>
    {
         PioSetMode(LED_RED, pio_mode_user);
     C6F:	0914      	ld         al, #+0x9
     C70:	0A00      	**prefx    0xA
     C71:	719C      	bsr        +0xA71 <PioSetMode:0x16E2[p]>
         PioSet(LED_RED, 1);
     C72:	0914      	ld         al, #+0x9
     C73:	0110      	ld         ah, #+0x1
     C74:	0100      	**prefx    0x1
     C75:	E900      	**prefx    0xE9
     C76:	369C      	bsr        +0xE936 <PioSet:0xF5AC[p]>
     C77:	05E0      	bra        +0x5 <SetLEDColor+0x14:0xC7C[p]>
    }
    else
    {
        PioSetMode(LED_RED, pio_mode_pwm0);
     C78:	0914      	ld         al, #+0x9
     C79:	0410      	ld         ah, #+0x4
     C7A:	0A00      	**prefx    0xA
     C7B:	679C      	bsr        +0xA67 <PioSetMode:0x16E2[p]>
    }

    if ((green >> QUANTIZATION_ERROR) == 0)
     C7C:	0C13      	ld         ah, @(+0xC, y)
     C7D:	0009      	**unsigned
     C7E:	02A4      	lsr        #0x2
     C7F:	0A23      	st         ah, @(+0xA, y)
     C80:	0AF0      	bne        +0xA <SetLEDColor+0x22:0xC8A[p]>
    {
         PioSetMode(LED_GREEN, pio_mode_user);
     C81:	0A14      	ld         al, #+0xA
     C82:	0A00      	**prefx    0xA
     C83:	5F9C      	bsr        +0xA5F <PioSetMode:0x16E2[p]>
         PioSet(LED_GREEN, 1);
     C84:	0A14      	ld         al, #+0xA
     C85:	0110      	ld         ah, #+0x1
     C86:	0100      	**prefx    0x1
     C87:	E900      	**prefx    0xE9
     C88:	249C      	bsr        +0xE924 <PioSet:0xF5AC[p]>
     C89:	05E0      	bra        +0x5 <SetLEDColor+0x26:0xC8E[p]>
    }
    else
    {
        PioSetMode(LED_GREEN, pio_mode_pwm1);
     C8A:	0A14      	ld         al, #+0xA
     C8B:	0510      	ld         ah, #+0x5
     C8C:	0A00      	**prefx    0xA
     C8D:	559C      	bsr        +0xA55 <PioSetMode:0x16E2[p]>
    }

    if ((blue >> QUANTIZATION_ERROR) == 0)
     C8E:	0E13      	ld         ah, @(+0xE, y)
     C8F:	0009      	**unsigned
     C90:	02A4      	lsr        #0x2
     C91:	0923      	st         ah, @(+0x9, y)
     C92:	0AF0      	bne        +0xA <SetLEDColor+0x34:0xC9C[p]>
    {
         PioSetMode(LED_BLUE, pio_mode_user);
     C93:	0B14      	ld         al, #+0xB
     C94:	0A00      	**prefx    0xA
     C95:	4D9C      	bsr        +0xA4D <PioSetMode:0x16E2[p]>
         PioSet(LED_BLUE, 1);
     C96:	0B14      	ld         al, #+0xB
     C97:	0110      	ld         ah, #+0x1
     C98:	0100      	**prefx    0x1
     C99:	E900      	**prefx    0xE9
     C9A:	129C      	bsr        +0xE912 <PioSet:0xF5AC[p]>
     C9B:	05E0      	bra        +0x5 <SetLEDColor+0x38:0xCA0[p]>
    }
    else
    {
        PioSetMode(LED_BLUE, pio_mode_pwm2);
     C9C:	0B14      	ld         al, #+0xB
     C9D:	0610      	ld         ah, #+0x6
     C9E:	0A00      	**prefx    0xA
     C9F:	439C      	bsr        +0xA43 <PioSetMode:0x16E2[p]>
    }

    /* Invert values as its a pull down */
    red   = COLOR_MAX_VALUE - (red >> QUANTIZATION_ERROR);
     CA0:	3F14      	ld         al, #+0x3F
     CA1:	0B57      	sub        al, @(+0xB, y)
    green = COLOR_MAX_VALUE - (green >> QUANTIZATION_ERROR);
     CA2:	3F18      	ld         x, #+0x3F
     CA3:	0A5B      	sub        x, @(+0xA, y)
     CA4:	082B      	st         x, @(+0x8, y)
    blue  = COLOR_MAX_VALUE - (blue >> QUANTIZATION_ERROR);
     CA5:	3F18      	ld         x, #+0x3F
     CA6:	095B      	sub        x, @(+0x9, y)
     CA7:	072B      	st         x, @(+0x7, y)

    PioConfigPWM(PWM_RED, pio_pwm_mode_push_pull,
     CA8:	0027      	st         al, @(0x0, y)
     CA9:	0B1B      	ld         x, @(+0xB, y)
     CAA:	012B      	st         x, @(+0x1, y)
     CAB:	0118      	ld         x, #+0x1
     CAC:	022B      	st         x, @(+0x2, y)
     CAD:	0327      	st         al, @(+0x3, y)
     CAE:	0B17      	ld         al, @(+0xB, y)
     CAF:	0427      	st         al, @(+0x4, y)
     CB0:	052B      	st         x, @(+0x5, y)
     CB1:	0018      	ld         x, #+0x0
     CB2:	062B      	st         x, @(+0x6, y)
     CB3:	0014      	ld         al, #+0x0
     CB4:	0010      	ld         ah, #+0x0
     CB5:	0A00      	**prefx    0xA
     CB6:	019C      	bsr        +0xA01 <PioConfigPWM:0x16B7[p]>
                 red, (COLOR_MAX_VALUE - red), 1U,
                 red, (COLOR_MAX_VALUE - red), 1U, 0U);
    PioConfigPWM(PWM_GREEN, pio_pwm_mode_push_pull,
     CB7:	0817      	ld         al, @(+0x8, y)
     CB8:	0027      	st         al, @(0x0, y)
     CB9:	0A1B      	ld         x, @(+0xA, y)
     CBA:	012B      	st         x, @(+0x1, y)
     CBB:	0114      	ld         al, #+0x1
     CBC:	0227      	st         al, @(+0x2, y)
     CBD:	081B      	ld         x, @(+0x8, y)
     CBE:	032B      	st         x, @(+0x3, y)
     CBF:	0A17      	ld         al, @(+0xA, y)
     CC0:	0427      	st         al, @(+0x4, y)
     CC1:	0118      	ld         x, #+0x1
     CC2:	052B      	st         x, @(+0x5, y)
     CC3:	0014      	ld         al, #+0x0
     CC4:	0627      	st         al, @(+0x6, y)
     CC5:	0114      	ld         al, #+0x1
     CC6:	0010      	ld         ah, #+0x0
     CC7:	0A00      	**prefx    0xA
     CC8:	EF9C      	bsr        +0x9EF <PioConfigPWM:0x16B7[p]>
                 green, (COLOR_MAX_VALUE - green), 1U,
                 green, (COLOR_MAX_VALUE - green), 1U, 0U);
    PioConfigPWM(PWM_BLUE, pio_pwm_mode_push_pull,
     CC9:	071B      	ld         x, @(+0x7, y)
     CCA:	002B      	st         x, @(0x0, y)
     CCB:	0917      	ld         al, @(+0x9, y)
     CCC:	0127      	st         al, @(+0x1, y)
     CCD:	0118      	ld         x, #+0x1
     CCE:	022B      	st         x, @(+0x2, y)
     CCF:	0717      	ld         al, @(+0x7, y)
     CD0:	0327      	st         al, @(+0x3, y)
     CD1:	091B      	ld         x, @(+0x9, y)
     CD2:	042B      	st         x, @(+0x4, y)
     CD3:	0114      	ld         al, #+0x1
     CD4:	0527      	st         al, @(+0x5, y)
     CD5:	0018      	ld         x, #+0x0
     CD6:	062B      	st         x, @(+0x6, y)
     CD7:	0214      	ld         al, #+0x2
     CD8:	0010      	ld         ah, #+0x0
     CD9:	0A00      	**prefx    0xA
     CDA:	DD9C      	bsr        +0x9DD <PioConfigPWM:0x16B7[p]>
                 blue, (COLOR_MAX_VALUE - blue), 1U,
                 blue, (COLOR_MAX_VALUE - blue), 1U, 0U);   
}
     CDB:	0E0F      	leave      #+0xE

0x00000CDC <setPWMDuty>:
    PioSet(LED_RED, TRUE);
    PioSet(LED_GREEN, TRUE);
    PioSet(LED_BLUE, TRUE);
}
            
bool setPWMDuty(uint16 pwm_id, uint8 duty) {
     CDC:	080B      	enter      #+0x8
     CDD:	F825      	st         al, @0xFFF8 <(scratchpad)>
    return PioConfigPWM(pwm_id, pio_pwm_mode_push_pull,
     CDE:	0100      	**prefx    0x1
     CDF:	FF18      	ld         x, #+0xFF
     CE0:	E059      	sub        x, @0xFFE0 <register ah>
     CE1:	002B      	st         x, @(0x0, y)
     CE2:	0123      	st         ah, @(+0x1, y)
     CE3:	0014      	ld         al, #+0x0
     CE4:	0227      	st         al, @(+0x2, y)
     CE5:	032B      	st         x, @(+0x3, y)
     CE6:	0423      	st         ah, @(+0x4, y)
     CE7:	0527      	st         al, @(+0x5, y)
     CE8:	0627      	st         al, @(+0x6, y)
     CE9:	F815      	ld         al, @0xFFF8 <(scratchpad)>
     CEA:	0010      	ld         ah, #+0x0
     CEB:	0A00      	**prefx    0xA
     CEC:	CB9C      	bsr        +0x9CB <PioConfigPWM:0x16B7[p]>
                            PWM_PERIOD - duty, duty, PWM_HOLD_TIME,
                            PWM_PERIOD - duty, duty, PWM_HOLD_TIME,
                            0);
}
     CED:	080F      	leave      #+0x8

0x00000CEE <initPWMs>:
#define QUANTIZATION_ERROR       (LIGHT_INPUT_COLOR_DEPTH -\
                                  LIGHT_MAPPED_COLOR_DEPTH)
/* Maximum colour level supported by mapped colour depth bits. */
#define COLOR_MAX_VALUE          ((0x1 << LIGHT_MAPPED_COLOR_DEPTH) - 1)

void initPWMs(void) {
     CEE:	030B      	enter      #+0x3
    PioSetDirs(LED_PIO_MASK, LED_PIO_MASK);         // set to outputs
     CEF:	0014      	ld         al, #+0x0
     CF0:	0027      	st         al, @(0x0, y)
     CF1:	0E00      	**prefx    0xE
     CF2:	0014      	ld         al, #+0xE00
     CF3:	0127      	st         al, @(+0x1, y)
     CF4:	0010      	ld         ah, #+0x0
     CF5:	0100      	**prefx    0x1
     CF6:	EA00      	**prefx    0xEA
     CF7:	639C      	bsr        +0xEA63 <PioSetDirs:0xF75A[p]>

    setPWMDuty(PWM_RED, 0);
     CF8:	0014      	ld         al, #+0x0
     CF9:	0010      	ld         ah, #+0x0
     CFA:	E29C      	bsr        -0x1E <setPWMDuty:0xCDC[p]>
    setPWMDuty(PWM_GREEN, 0);
     CFB:	0114      	ld         al, #+0x1
     CFC:	0010      	ld         ah, #+0x0
     CFD:	DF9C      	bsr        -0x21 <setPWMDuty:0xCDC[p]>
    setPWMDuty(PWM_BLUE, 0);
     CFE:	0214      	ld         al, #+0x2
     CFF:	0010      	ld         ah, #+0x0
     D00:	DC9C      	bsr        -0x24 <setPWMDuty:0xCDC[p]>
    PioSetMode(LED_RED, pio_mode_pwm0);
     D01:	0914      	ld         al, #+0x9
     D02:	0410      	ld         ah, #+0x4
     D03:	0A00      	**prefx    0xA
     D04:	DE9C      	bsr        +0x9DE <PioSetMode:0x16E2[p]>
    PioSetMode(LED_GREEN, pio_mode_pwm1);
     D05:	0A14      	ld         al, #+0xA
     D06:	0510      	ld         ah, #+0x5
     D07:	0A00      	**prefx    0xA
     D08:	DA9C      	bsr        +0x9DA <PioSetMode:0x16E2[p]>
    PioSetMode(LED_BLUE, pio_mode_pwm2);
     D09:	0B14      	ld         al, #+0xB
     D0A:	0610      	ld         ah, #+0x6
     D0B:	0A00      	**prefx    0xA
     D0C:	D69C      	bsr        +0x9D6 <PioSetMode:0x16E2[p]>
    PioEnablePWM(PWM_RED, TRUE);
     D0D:	0014      	ld         al, #+0x0
     D0E:	0110      	ld         ah, #+0x1
     D0F:	0100      	**prefx    0x1
     D10:	EA00      	**prefx    0xEA
     D11:	B79C      	bsr        +0xE9B7 <PioEnablePWM:0xF6C8[p]>
    PioEnablePWM(PWM_GREEN, TRUE);
     D12:	0114      	ld         al, #+0x1
     D13:	0110      	ld         ah, #+0x1
     D14:	0100      	**prefx    0x1
     D15:	EA00      	**prefx    0xEA
     D16:	B29C      	bsr        +0xE9B2 <PioEnablePWM:0xF6C8[p]>
    PioEnablePWM(PWM_BLUE, TRUE);
     D17:	0214      	ld         al, #+0x2
     D18:	0110      	ld         ah, #+0x1
     D19:	0100      	**prefx    0x1
     D1A:	EA00      	**prefx    0xEA
     D1B:	AD9C      	bsr        +0xE9AD <PioEnablePWM:0xF6C8[p]>
}
     D1C:	030F      	leave      #+0x3

0x00000D1D <LsReadTransmitPowerLevel>:
     D1D:	020B      	enter      #+0x2
     D1E:	0027      	st         al, @(0x0, y)
     D1F:	0800      	**prefx    0x8
     D20:	EF9C      	bsr        +0x7EF <___libgatt_lib_db_4656:0x150F[p]>
     D21:	001B      	ld         x, @(0x0, y)
     D22:	0026      	st         al, @(0x0, x)
     D23:	0014      	ld         al, #+0x0
     D24:	020F      	leave      #+0x2

0x00000D25 <___libgatt_lib_db_4563>:
     D25:	010B      	enter      #+0x1
     D26:	9400      	**prefx    0x94
     D27:	6E15      	ld         al, @0x946E <___libgatt_lib_db_79+0x1>
     D28:	0AF4      	beq        +0xA <___libgatt_lib_db_4563+0xD:0xD32[p]>
     D29:	3E00      	**prefx    0x3E
     D2A:	1E11      	ld         ah, @0x3E1E <g_app_data+0x1E>
     D2B:	E000      	**prefx    0xE0
     D2C:	1930      	add        ah, #-0x1FE7
     D2D:	FF23      	st         ah, @(-0x1, y)
     D2E:	FF9F      	bsr        @(-0x1, y)
     D2F:	0014      	ld         al, #+0x0
     D30:	9400      	**prefx    0x94
     D31:	6E25      	st         al, @0x946E <___libgatt_lib_db_79+0x1>
     D32:	010F      	leave      #+0x1

0x00000D33 <.LFB7>:
     D33:	020B      	enter      #+0x2
     D34:	9300      	**prefx    0x93
     D35:	6519      	ld         x, @0x9365 <___libgatt_lib_db_18>
     D36:	9300      	**prefx    0x93
     D37:	6815      	ld         al, @0x9368 <___libgatt_lib_db_73>
     D38:	F825      	st         al, @0xFFF8 <(scratchpad)>
     D39:	9400      	**prefx    0x94
     D3A:	8915      	ld         al, @0x9389 <___libgatt_lib_db_73+0x21>
     D3B:	F925      	st         al, @0xFFF9 <(scratchpad)>
     D3C:	3F00      	**prefx    0x3F
     D3D:	2811      	ld         ah, @0x3F28 <g_device_name+0x16>
     D3E:	05F0      	bne        +0x5 <.LFB7+0x10:0xD43[p]>
     D3F:	9300      	**prefx    0x93
     D40:	6915      	ld         al, @0x9369 <___libgatt_lib_db_73+0x1>
     D41:	0184      	cmp        al, #+0x1
     D42:	35F0      	bne        +0x35 <.LFB7+0x44:0xD77[p]>
     D43:	F999      	tst        @0xFFF9 <(scratchpad)>
     D44:	1AF4      	beq        +0x1A <.LFB7+0x2B:0xD5E[p]>
     D45:	E099      	tst        @0xFFE0 <register ah>
     D46:	18F4      	beq        +0x18 <.LFB7+0x2B:0xD5E[p]>
     D47:	9300      	**prefx    0x93
     D48:	6B15      	ld         al, @0x936B <___libgatt_lib_db_73+0x3>
     D49:	0184      	cmp        al, #+0x1
     D4A:	2DF0      	bne        +0x2D <.LFB7+0x44:0xD77[p]>
     D4B:	9300      	**prefx    0x93
     D4C:	6C15      	ld         al, @0x936C <___libgatt_lib_db_73+0x4>
     D4D:	FCC4      	and        al, #0xFFFC
     D4E:	9300      	**prefx    0x93
     D4F:	6C25      	st         al, @0x936C <___libgatt_lib_db_73+0x4>
     D50:	FE38      	add        x, #-0x2
     D51:	0388      	cmp        x, #+0x3
     D52:	0CF8      	bcc        +0xC <.LFB7+0x2B:0xD5E[p]>
     D53:	F819      	ld         x, @0xFFF8 <(scratchpad)>
     D54:	0288      	cmp        x, #+0x2
     D55:	03F0      	bne        +0x3 <.LFB7+0x25:0xD58[p]>
     D56:	01B4      	or         al, #+0x1
     D57:	05E0      	bra        +0x5 <.LFB7+0x29:0xD5C[p]>
     D58:	F819      	ld         x, @0xFFF8 <(scratchpad)>
     D59:	0388      	cmp        x, #+0x3
     D5A:	04F0      	bne        +0x4 <.LFB7+0x2B:0xD5E[p]>
     D5B:	02B4      	or         al, #+0x2
     D5C:	9300      	**prefx    0x93
     D5D:	6C25      	st         al, @0x936C <___libgatt_lib_db_73+0x4>
     D5E:	3E00      	**prefx    0x3E
     D5F:	1E19      	ld         x, @0x3E1E <g_app_data+0x1E>
     D60:	CF00      	**prefx    0xCF
     D61:	E438      	add        x, #-0x311C
     D62:	0014      	ld         al, #+0x0
     D63:	0027      	st         al, @(0x0, y)
     D64:	9300      	**prefx    0x93
     D65:	6A14      	ld         al, #-0x6C96
     D66:	F911      	ld         ah, @0xFFF9 <(scratchpad)>
     D67:	FF2B      	st         x, @(-0x1, y)
     D68:	FF9F      	bsr        @(-0x1, y)
     D69:	9400      	**prefx    0x94
     D6A:	AD11      	ld         ah, @0x93AD <___libgatt_lib_db_73+0x45>
     D6B:	3E00      	**prefx    0x3E
     D6C:	1E19      	ld         x, @0x3E1E <g_app_data+0x1E>
     D6D:	CF00      	**prefx    0xCF
     D6E:	E438      	add        x, #-0x311C
     D6F:	0114      	ld         al, #+0x1
     D70:	0027      	st         al, @(0x0, y)
     D71:	9400      	**prefx    0x94
     D72:	8E14      	ld         al, #-0x6C72
     D73:	FF2B      	st         x, @(-0x1, y)
     D74:	FF9F      	bsr        @(-0x1, y)
     D75:	0014      	ld         al, #+0x0
     D76:	02E0      	bra        +0x2 <.LFB7+0x45:0xD78[p]>
     D77:	0C14      	ld         al, #+0xC
     D78:	020F      	leave      #+0x2

0x00000D79 <___libgatt_lib_db_4564>:
     D79:	010B      	enter      #+0x1
     D7A:	B99C      	bsr        -0x47 <.LFB7:0xD33[p]>
     D7B:	E199      	tst        @0xFFE1 <register al>
     D7C:	05F0      	bne        +0x5 <___libgatt_lib_db_4564+0x8:0xD81[p]>
     D7D:	9000      	**prefx    0x90
     D7E:	8F14      	ld         al, #-0x7071
     D7F:	0027      	st         al, @(0x0, y)
     D80:	03E0      	bra        +0x3 <___libgatt_lib_db_4564+0xA:0xD83[p]>
     D81:	0C14      	ld         al, #+0xC
     D82:	0B0F      	leave      #+0xB
     D83:	010F      	leave      #+0x1

0x00000D84 <LsStoreAdvScanData>:
     D84:	020B      	enter      #+0x2
     D85:	021B      	ld         x, @(+0x2, y)
     D86:	002B      	st         x, @(0x0, y)
     D87:	0100      	**prefx    0x1
     D88:	8200      	**prefx    0x82
     D89:	2D9C      	bsr        +0x822D <LsStoreAdvScanData_A05:0x8FB6[p]>
     D8A:	E199      	tst        @0xFFE1 <register al>
     D8B:	07F0      	bne        +0x7 <LsStoreAdvScanData+0xE:0xD92[p]>
     D8C:	029B      	tst        @(+0x2, y)
     D8D:	04F0      	bne        +0x4 <LsStoreAdvScanData+0xD:0xD91[p]>
     D8E:	0114      	ld         al, #+0x1
     D8F:	3F00      	**prefx    0x3F
     D90:	2825      	st         al, @0x3F28 <g_device_name+0x16>
     D91:	A29C      	bsr        -0x5E <.LFB7:0xD33[p]>
     D92:	020F      	leave      #+0x2

0x00000D93 <GattInit>:
     D93:	020B      	enter      #+0x2
     D94:	0100      	**prefx    0x1
     D95:	8600      	**prefx    0x86
     D96:	369C      	bsr        +0x8636 <___libgatt_lib_db_74:0x93CC[p]>
     D97:	0100      	**prefx    0x1
     D98:	8800      	**prefx    0x88
     D99:	3A9C      	bsr        +0x883A <l2cap_init:0x95D3[p]>
     D9A:	7A00      	**prefx    0x7A
     D9B:	B79C      	bsr        +0x79B7 <___libgatt_lib_db_465:0x8752[p]>
     D9C:	F400      	**prefx    0xF4
     D9D:	CB9C      	bsr        -0xC35 <___libgatt_lib_db_476:0x168[p]>
     D9E:	0600      	**prefx    0x6
     D9F:	0714      	ld         al, #+0x607
     DA0:	9300      	**prefx    0x93
     DA1:	6025      	st         al, @0x9360 <DATA_ROMDATA_START>
     DA2:	0100      	**prefx    0x1
     DA3:	8C00      	**prefx    0x8C
     DA4:	D89C      	bsr        +0x8BD8 <___libgatt_lib_db_139:0x997C[p]>
     DA5:	2E18      	ld         x, #+0x2E
     DA6:	002B      	st         x, @(0x0, y)
     DA7:	9700      	**prefx    0x97
     DA8:	D714      	ld         al, #-0x6929
     DA9:	0010      	ld         ah, #+0x0
     DAA:	7F00      	**prefx    0x7F
     DAB:	629C      	bsr        +0x7F62 <MemSet:0x8D0D[p]>
     DAC:	FF14      	ld         al, #-0x1
     DAD:	9700      	**prefx    0x97
     DAE:	D718      	ld         x, #-0x6929
     DAF:	0026      	st         al, @(0x0, x)
     DB0:	9700      	**prefx    0x97
     DB1:	EE25      	st         al, @0x96EE <___libgatt_lib_db_127+0xC>
     DB2:	0B00      	**prefx    0xB
     DB3:	999C      	bsr        +0xA99 <___libgatt_lib_db_4554:0x184C[p]>
     DB4:	020F      	leave      #+0x2

0x00000DB5 <GattCancelConnectReq>:
     DB5:	010B      	enter      #+0x1
     DB6:	FF00      	**prefx    0xFF
     DB7:	6E9C      	bsr        -0x92 <___libgatt_lib_db_4563:0xD25[p]>
     DB8:	0100      	**prefx    0x1
     DB9:	A200      	**prefx    0xA2
     DBA:	A39C      	bsr        +0xA1A3 <GattCancelConnectReq_A05:0xAF5D[p]>
     DBB:	010F      	leave      #+0x1

0x00000DBC <.LFB16>:
     DBC:	040B      	enter      #+0x4
     DBD:	0227      	st         al, @(+0x2, y)
     DBE:	E119      	ld         x, @0xFFE1 <register al>
     DBF:	9700      	**prefx    0x97
     DC0:	5516      	ld         al, @(-0x68AB, x)
     DC1:	0684      	cmp        al, #+0x6
     DC2:	25F0      	bne        +0x25 <.LFB16+0x2B:0xDE7[p]>
     DC3:	F600      	**prefx    0xF6
     DC4:	6C19      	ld         x, @0xF66C <___libgatt_lib_db_1944>
     DC5:	0217      	ld         al, @(+0x2, y)
     DC6:	02A0      	asl        #0x2
     DC7:	F825      	st         al, @0xFFF8 <(scratchpad)>
     DC8:	0214      	ld         al, #+0x2
     DC9:	F8A1      	asl        @0xFFF8 <(scratchpad)>
     DCA:	E1C9      	and        x, @0xFFE1 <register al>
     DCB:	1CF4      	beq        +0x1C <.LFB16+0x2B:0xDE7[p]>
     DCC:	3E00      	**prefx    0x3E
     DCD:	2215      	ld         al, @0x3E22 <patch_pending_mode+0x1>
     DCE:	0127      	st         al, @(+0x1, y)
     DCF:	3E00      	**prefx    0x3E
     DD0:	2211      	ld         ah, @0x3E22 <patch_pending_mode+0x1>
     DD1:	B900      	**prefx    0xB9
     DD2:	AF30      	add        ah, #-0x4751
     DD3:	0217      	ld         al, @(+0x2, y)
     DD4:	FF23      	st         ah, @(-0x1, y)
     DD5:	FF9F      	bsr        @(-0x1, y)
     DD6:	E111      	ld         ah, @0xFFE1 <register al>
     DD7:	0117      	ld         al, @(+0x1, y)
     DD8:	B700      	**prefx    0xB7
     DD9:	6234      	add        al, #-0x489E
     DDA:	0127      	st         al, @(+0x1, y)
     DDB:	2818      	ld         x, #+0x28
     DDC:	002B      	st         x, @(0x0, y)
     DDD:	0014      	ld         al, #+0x0
     DDE:	019F      	bsr        @(+0x1, y)
     DDF:	3E00      	**prefx    0x3E
     DE0:	2211      	ld         ah, @0x3E22 <patch_pending_mode+0x1>
     DE1:	BD00      	**prefx    0xBD
     DE2:	B630      	add        ah, #-0x434A
     DE3:	0217      	ld         al, @(+0x2, y)
     DE4:	FF23      	st         ah, @(-0x1, y)
     DE5:	FF9F      	bsr        @(-0x1, y)
     DE6:	09E0      	bra        +0x9 <.LFB16+0x33:0xDEF[p]>
     DE7:	3E00      	**prefx    0x3E
     DE8:	2219      	ld         x, @0x3E22 <patch_pending_mode+0x1>
     DE9:	BE00      	**prefx    0xBE
     DEA:	FC38      	add        x, #-0x4204
     DEB:	0217      	ld         al, @(+0x2, y)
     DEC:	0010      	ld         ah, #+0x0
     DED:	FF2B      	st         x, @(-0x1, y)
     DEE:	FF9F      	bsr        @(-0x1, y)
     DEF:	040F      	leave      #+0x4

0x00000DF0 <___libgatt_lib_db_4607>:
     DF0:	010B      	enter      #+0x1
     DF1:	E119      	ld         x, @0xFFE1 <register al>
     DF2:	0217      	ld         al, @(+0x2, y)
     DF3:	0026      	st         al, @(0x0, x)
     DF4:	0117      	ld         al, @(+0x1, y)
     DF5:	0126      	st         al, @(+0x1, x)
     DF6:	0222      	st         ah, @(+0x2, x)
     DF7:	010F      	leave      #+0x1

0x00000DF8 <___libgatt_lib_db_4614>:
     DF8:	020B      	enter      #+0x2
     DF9:	0617      	ld         al, @(+0x6, y)
     DFA:	CE00      	**prefx    0xCE
     DFB:	2384      	cmp        al, #-0x31DD
     DFC:	16F0      	bne        +0x16 <___libgatt_lib_db_4614+0x1A:0xE12[p]>
     DFD:	3E00      	**prefx    0x3E
     DFE:	5F99      	tst        @0x3E5F <enable_lowduty_directed_adv>
     DFF:	13F4      	beq        +0x13 <___libgatt_lib_db_4614+0x1A:0xE12[p]>
     E00:	0417      	ld         al, @(+0x4, y)
     E01:	3E00      	**prefx    0x3E
     E02:	2219      	ld         x, @0x3E22 <patch_pending_mode+0x1>
     E03:	F829      	st         x, @0xFFF8 <(scratchpad)>
     E04:	5790      	smult      #+0x57
     E05:	9700      	**prefx    0x97
     E06:	5534      	add        al, #-0x68AB
     E07:	0027      	st         al, @(0x0, y)
     E08:	E119      	ld         x, @0xFFE1 <register al>
     E09:	6216      	ld         al, @(+0x62, x)
     E0A:	F819      	ld         x, @0xFFF8 <(scratchpad)>
     E0B:	E000      	**prefx    0xE0
     E0C:	1938      	add        x, #-0x1FE7
     E0D:	FF2B      	st         x, @(-0x1, y)
     E0E:	FF9F      	bsr        @(-0x1, y)
     E0F:	0014      	ld         al, #+0x0
     E10:	001B      	ld         x, @(0x0, y)
     E11:	6226      	st         al, @(+0x62, x)
     E12:	020F      	leave      #+0x2

0x00000E13 <___libgatt_lib_db_4613>:
     E13:	1E0B      	enter      #+0x1E
     E14:	3817      	ld         al, @(+0x38, y)
     E15:	1B27      	st         al, @(+0x1B, y)
     E16:	5790      	smult      #+0x57
     E17:	9700      	**prefx    0x97
     E18:	6B34      	add        al, #-0x6895
     E19:	1827      	st         al, @(+0x18, y)
     E1A:	0018      	ld         x, #+0x0
     E1B:	022B      	st         x, @(+0x2, y)
     E1C:	0014      	ld         al, #+0x0
     E1D:	181B      	ld         x, @(+0x18, y)
     E1E:	4B26      	st         al, @(+0x4B, x)
     E1F:	181A      	ld         x, @(+0x18, x)
     E20:	1A2B      	st         x, @(+0x1A, y)
     E21:	181B      	ld         x, @(+0x18, y)
     E22:	111A      	ld         x, @(+0x11, x)
     E23:	192B      	st         x, @(+0x19, y)
     E24:	181B      	ld         x, @(+0x18, y)
     E25:	4F16      	ld         al, @(+0x4F, x)
     E26:	1226      	st         al, @(+0x12, x)
     E27:	5016      	ld         al, @(+0x50, x)
     E28:	1326      	st         al, @(+0x13, x)
     E29:	3E00      	**prefx    0x3E
     E2A:	2219      	ld         x, @0x3E22 <patch_pending_mode+0x1>
     E2B:	E315      	ld         al, @0xFFE3 <register uxl>
     E2C:	CB00      	**prefx    0xCB
     E2D:	F034      	add        al, #-0x3510
     E2E:	F825      	st         al, @0xFFF8 <(scratchpad)>
     E2F:	181B      	ld         x, @(+0x18, y)
     E30:	4D12      	ld         ah, @(+0x4D, x)
     E31:	4E16      	ld         al, @(+0x4E, x)
     E32:	0027      	st         al, @(0x0, y)
     E33:	1B17      	ld         al, @(+0x1B, y)
     E34:	F819      	ld         x, @0xFFF8 <(scratchpad)>
     E35:	FF2B      	st         x, @(-0x1, y)
     E36:	FF9F      	bsr        @(-0x1, y)
     E37:	0014      	ld         al, #+0x0
     E38:	181B      	ld         x, @(+0x18, y)
     E39:	4D26      	st         al, @(+0x4D, x)
     E3A:	1816      	ld         al, @(+0x18, x)
     E3B:	02E0      	bra        +0x2 <___libgatt_lib_db_4613+0x2A:0xE3D[p]>
     E3C:	1937      	add        al, @(+0x19, y)
     E3D:	1A87      	cmp        al, @(+0x1A, y)
     E3E:	FEFC      	bcs        -0x2 <___libgatt_lib_db_4613+0x29:0xE3C[p]>
     E3F:	E111      	ld         ah, @0xFFE1 <register al>
     E40:	1A53      	sub        ah, @(+0x1A, y)
     E41:	191B      	ld         x, @(+0x19, y)
     E42:	0078      	nadd       x, #+0x0
     E43:	F829      	st         x, @0xFFF8 <(scratchpad)>
     E44:	E019      	ld         x, @0xFFE0 <register ah>
     E45:	F831      	add        ah, @0xFFF8 <(scratchpad)>
     E46:	1917      	ld         al, @(+0x19, y)
     E47:	E035      	add        al, @0xFFE0 <register ah>
     E48:	1987      	cmp        al, @(+0x19, y)
     E49:	FBF8      	bcc        -0x5 <___libgatt_lib_db_4613+0x31:0xE44[p]>
     E4A:	042B      	st         x, @(+0x4, y)
     E4B:	0214      	ld         al, #+0x2
     E4C:	0327      	st         al, @(+0x3, y)
     E4D:	181B      	ld         x, @(+0x18, y)
     E4E:	111A      	ld         x, @(+0x11, x)
     E4F:	052B      	st         x, @(+0x5, y)
     E50:	181B      	ld         x, @(+0x18, y)
     E51:	121A      	ld         x, @(+0x12, x)
     E52:	062B      	st         x, @(+0x6, y)
     E53:	181B      	ld         x, @(+0x18, y)
     E54:	131A      	ld         x, @(+0x13, x)
     E55:	072B      	st         x, @(+0x7, y)
     E56:	1B17      	ld         al, @(+0x1B, y)
     E57:	0700      	**prefx    0x7
     E58:	989C      	bsr        +0x698 <___libgatt_lib_db_4637:0x14F0[p]>
     E59:	3E00      	**prefx    0x3E
     E5A:	2215      	ld         al, @0x3E22 <patch_pending_mode+0x1>
     E5B:	E500      	**prefx    0xE5
     E5C:	A734      	add        al, #-0x1B59
     E5D:	FF27      	st         al, @(-0x1, y)
     E5E:	FF9F      	bsr        @(-0x1, y)
     E5F:	3E00      	**prefx    0x3E
     E60:	2219      	ld         x, @0x3E22 <patch_pending_mode+0x1>
     E61:	D200      	**prefx    0xD2
     E62:	1E38      	add        x, #-0x2DE2
     E63:	1B17      	ld         al, @(+0x1B, y)
     E64:	E411      	ld         ah, @0xFFE4 <register uy>
     E65:	0130      	add        ah, #+0x1
     E66:	FF2B      	st         x, @(-0x1, y)
     E67:	FF9F      	bsr        @(-0x1, y)
     E68:	3E00      	**prefx    0x3E
     E69:	2215      	ld         al, @0x3E22 <patch_pending_mode+0x1>
     E6A:	B900      	**prefx    0xB9
     E6B:	6034      	add        al, #-0x46A0
     E6C:	FF27      	st         al, @(-0x1, y)
     E6D:	FF9F      	bsr        @(-0x1, y)
     E6E:	0827      	st         al, @(+0x8, y)
     E6F:	181B      	ld         x, @(+0x18, y)
     E70:	0C16      	ld         al, @(+0xC, x)
     E71:	0384      	cmp        al, #+0x3
     E72:	5E2C      	bcz        +0x5E <UART_RATE_921K6+0x11:0xED0[p]>
     E73:	3E00      	**prefx    0x3E
     E74:	2219      	ld         x, @0x3E22 <patch_pending_mode+0x1>
     E75:	D300      	**prefx    0xD3
     E76:	C938      	add        x, #-0x2D37
     E77:	3C14      	ld         al, #+0x3C
     E78:	0313      	ld         ah, @(+0x3, y)
     E79:	FF2B      	st         x, @(-0x1, y)
     E7A:	FF9F      	bsr        @(-0x1, y)
     E7B:	3E00      	**prefx    0x3E
     E7C:	2219      	ld         x, @0x3E22 <patch_pending_mode+0x1>
     E7D:	D300      	**prefx    0xD3
     E7E:	C938      	add        x, #-0x2D37
     E7F:	3D14      	ld         al, #+0x3D
     E80:	0413      	ld         ah, @(+0x4, y)
     E81:	FF2B      	st         x, @(-0x1, y)
     E82:	FF9F      	bsr        @(-0x1, y)
     E83:	3E00      	**prefx    0x3E
     E84:	2215      	ld         al, @0x3E22 <patch_pending_mode+0x1>
     E85:	E119      	ld         x, @0xFFE1 <register al>
     E86:	D300      	**prefx    0xD3
     E87:	C938      	add        x, #-0x2D37
     E88:	F829      	st         x, @0xFFF8 <(scratchpad)>
     E89:	181B      	ld         x, @(+0x18, y)
     E8A:	1112      	ld         ah, @(+0x11, x)
     E8B:	3014      	ld         al, #+0x30
     E8C:	F819      	ld         x, @0xFFF8 <(scratchpad)>
     E8D:	FF2B      	st         x, @(-0x1, y)
     E8E:	FF9F      	bsr        @(-0x1, y)
     E8F:	3E00      	**prefx    0x3E
     E90:	2215      	ld         al, @0x3E22 <patch_pending_mode+0x1>
     E91:	E119      	ld         x, @0xFFE1 <register al>
     E92:	D300      	**prefx    0xD3
     E93:	C938      	add        x, #-0x2D37
     E94:	F829      	st         x, @0xFFF8 <(scratchpad)>
     E95:	181B      	ld         x, @(+0x18, y)
     E96:	1212      	ld         ah, @(+0x12, x)
     E97:	3214      	ld         al, #+0x32
     E98:	F819      	ld         x, @0xFFF8 <(scratchpad)>
     E99:	FF2B      	st         x, @(-0x1, y)
     E9A:	FF9F      	bsr        @(-0x1, y)
     E9B:	3E00      	**prefx    0x3E
     E9C:	2215      	ld         al, @0x3E22 <patch_pending_mode+0x1>
     E9D:	E119      	ld         x, @0xFFE1 <register al>
     E9E:	D300      	**prefx    0xD3
     E9F:	C938      	add        x, #-0x2D37
     EA0:	F829      	st         x, @0xFFF8 <(scratchpad)>
     EA1:	181B      	ld         x, @(+0x18, y)
     EA2:	1312      	ld         ah, @(+0x13, x)
     EA3:	3114      	ld         al, #+0x31
     EA4:	F819      	ld         x, @0xFFF8 <(scratchpad)>
     EA5:	FF2B      	st         x, @(-0x1, y)
     EA6:	FF9F      	bsr        @(-0x1, y)
     EA7:	3E00      	**prefx    0x3E
     EA8:	2219      	ld         x, @0x3E22 <patch_pending_mode+0x1>
     EA9:	D300      	**prefx    0xD3
     EAA:	C938      	add        x, #-0x2D37
     EAB:	2E14      	ld         al, #+0x2E
     EAC:	0813      	ld         ah, @(+0x8, y)
     EAD:	FF2B      	st         x, @(-0x1, y)
     EAE:	FF9F      	bsr        @(-0x1, y)
     EAF:	3E00      	**prefx    0x3E
     EB0:	2215      	ld         al, @0x3E22 <patch_pending_mode+0x1>
     EB1:	1C27      	st         al, @(+0x1C, y)
     EB2:	3E00      	**prefx    0x3E
     EB3:	2211      	ld         ah, @0x3E22 <patch_pending_mode+0x1>
     EB4:	D400      	**prefx    0xD4
     EB5:	C430      	add        ah, #-0x2C3C
     EB6:	1B17      	ld         al, @(+0x1B, y)
     EB7:	FF23      	st         ah, @(-0x1, y)
     EB8:	FF9F      	bsr        @(-0x1, y)
     EB9:	E111      	ld         ah, @0xFFE1 <register al>
     EBA:	1C17      	ld         al, @(+0x1C, y)
     EBB:	D300      	**prefx    0xD3
     EBC:	C934      	add        al, #-0x2D37
     EBD:	1C27      	st         al, @(+0x1C, y)
     EBE:	5E14      	ld         al, #+0x5E
     EBF:	1C9F      	bsr        @(+0x1C, y)
     EC0:	3E00      	**prefx    0x3E
     EC1:	2211      	ld         ah, @0x3E22 <patch_pending_mode+0x1>
     EC2:	D300      	**prefx    0xD3
     EC3:	DE30      	add        ah, #-0x2D22
     EC4:	5F14      	ld         al, #+0x5F
     EC5:	FF23      	st         ah, @(-0x1, y)
     EC6:	FF9F      	bsr        @(-0x1, y)
     EC7:	E111      	ld         ah, @0xFFE1 <register al>
     EC8:	3E00      	**prefx    0x3E
     EC9:	2219      	ld         x, @0x3E22 <patch_pending_mode+0x1>
     ECA:	D300      	**prefx    0xD3
     ECB:	C938      	add        x, #-0x2D37
     ECC:	02B0      	or         ah, #+0x2
     ECD:	5F14      	ld         al, #+0x5F
     ECE:	FF2B      	st         x, @(-0x1, y)
     ECF:	FF9F      	bsr        @(-0x1, y)
     ED0:	3E00      	**prefx    0x3E
     ED1:	2211      	ld         ah, @0x3E22 <patch_pending_mode+0x1>
     ED2:	D200      	**prefx    0xD2
     ED3:	2630      	add        ah, #-0x2DDA
     ED4:	E415      	ld         al, @0xFFE4 <register uy>
     ED5:	0134      	add        al, #+0x1
     ED6:	FF23      	st         ah, @(-0x1, y)
     ED7:	FF9F      	bsr        @(-0x1, y)
     ED8:	3E00      	**prefx    0x3E
     ED9:	2215      	ld         al, @0x3E22 <patch_pending_mode+0x1>
     EDA:	E500      	**prefx    0xE5
     EDB:	B034      	add        al, #-0x1B50
     EDC:	FF27      	st         al, @(-0x1, y)
     EDD:	FF9F      	bsr        @(-0x1, y)
     EDE:	1B17      	ld         al, @(+0x1B, y)
     EDF:	0600      	**prefx    0x6
     EE0:	BD9C      	bsr        +0x5BD <___libgatt_lib_db_4636:0x149D[p]>
     EE1:	E199      	tst        @0xFFE1 <register al>
     EE2:	FF00      	**prefx    0xFF
     EE3:	73F4      	beq        -0x8D <L0+0x6:0xE56[p]>
     EE4:	3E00      	**prefx    0x3E
     EE5:	2219      	ld         x, @0x3E22 <patch_pending_mode+0x1>
     EE6:	C900      	**prefx    0xC9
     EE7:	4238      	add        x, #-0x36BE
     EE8:	0014      	ld         al, #+0x0
     EE9:	0027      	st         al, @(0x0, y)
     EEA:	1B17      	ld         al, @(+0x1B, y)
     EEB:	E411      	ld         ah, @0xFFE4 <register uy>
     EEC:	0230      	add        ah, #+0x2
     EED:	FF2B      	st         x, @(-0x1, y)
     EEE:	FF9F      	bsr        @(-0x1, y)
     EEF:	3B0F      	leave      #+0x3B
     EF0:	1E0F      	leave      #+0x1E

0x00000EF1 <.LFB20>:
     EF1:	160B      	enter      #+0x16
     EF2:	1427      	st         al, @(+0x14, y)
     EF3:	3E00      	**prefx    0x3E
     EF4:	2219      	ld         x, @0x3E22 <patch_pending_mode+0x1>
     EF5:	B700      	**prefx    0xB7
     EF6:	E838      	add        x, #-0x4918
     EF7:	0B00      	**prefx    0xB
     EF8:	B614      	ld         al, #+0xAB6
     EF9:	0910      	ld         ah, #+0x9
     EFA:	FF2B      	st         x, @(-0x1, y)
     EFB:	FF9F      	bsr        @(-0x1, y)
     EFC:	1327      	st         al, @(+0x13, y)
     EFD:	1417      	ld         al, @(+0x14, y)
     EFE:	0600      	**prefx    0x6
     EFF:	F19C      	bsr        +0x5F1 <___libgatt_lib_db_4637:0x14F0[p]>
     F00:	3E00      	**prefx    0x3E
     F01:	2219      	ld         x, @0x3E22 <patch_pending_mode+0x1>
     F02:	D200      	**prefx    0xD2
     F03:	1E38      	add        x, #-0x2DE2
     F04:	1417      	ld         al, @(+0x14, y)
     F05:	E411      	ld         ah, @0xFFE4 <register uy>
     F06:	0230      	add        ah, #+0x2
     F07:	FF2B      	st         x, @(-0x1, y)
     F08:	FF9F      	bsr        @(-0x1, y)
     F09:	3E00      	**prefx    0x3E
     F0A:	2219      	ld         x, @0x3E22 <patch_pending_mode+0x1>
     F0B:	D200      	**prefx    0xD2
     F0C:	7D38      	add        x, #-0x2D83
     F0D:	E411      	ld         ah, @0xFFE4 <register uy>
     F0E:	0630      	add        ah, #+0x6
     F0F:	0023      	st         ah, @(0x0, y)
     F10:	5514      	ld         al, #+0x55
     F11:	FD30      	add        ah, #-0x3
     F12:	FF2B      	st         x, @(-0x1, y)
     F13:	FF9F      	bsr        @(-0x1, y)
     F14:	3E00      	**prefx    0x3E
     F15:	2219      	ld         x, @0x3E22 <patch_pending_mode+0x1>
     F16:	D200      	**prefx    0xD2
     F17:	7D38      	add        x, #-0x2D83
     F18:	E411      	ld         ah, @0xFFE4 <register uy>
     F19:	0830      	add        ah, #+0x8
     F1A:	0023      	st         ah, @(0x0, y)
     F1B:	5314      	ld         al, #+0x53
     F1C:	FC30      	add        ah, #-0x4
     F1D:	FF2B      	st         x, @(-0x1, y)
     F1E:	FF9F      	bsr        @(-0x1, y)
     F1F:	3E00      	**prefx    0x3E
     F20:	2219      	ld         x, @0x3E22 <patch_pending_mode+0x1>
     F21:	D200      	**prefx    0xD2
     F22:	7D38      	add        x, #-0x2D83
     F23:	E411      	ld         ah, @0xFFE4 <register uy>
     F24:	0A30      	add        ah, #+0xA
     F25:	0023      	st         ah, @(0x0, y)
     F26:	3814      	ld         al, #+0x38
     F27:	FB30      	add        ah, #-0x5
     F28:	FF2B      	st         x, @(-0x1, y)
     F29:	FF9F      	bsr        @(-0x1, y)
     F2A:	3E00      	**prefx    0x3E
     F2B:	2211      	ld         ah, @0x3E22 <patch_pending_mode+0x1>
     F2C:	D300      	**prefx    0xD3
     F2D:	DE30      	add        ah, #-0x2D22
     F2E:	0014      	ld         al, #+0x0
     F2F:	FF23      	st         ah, @(-0x1, y)
     F30:	FF9F      	bsr        @(-0x1, y)
     F31:	1227      	st         al, @(+0x12, y)
     F32:	3E00      	**prefx    0x3E
     F33:	2211      	ld         ah, @0x3E22 <patch_pending_mode+0x1>
     F34:	D200      	**prefx    0xD2
     F35:	2630      	add        ah, #-0x2DDA
     F36:	E415      	ld         al, @0xFFE4 <register uy>
     F37:	0234      	add        al, #+0x2
     F38:	FF23      	st         ah, @(-0x1, y)
     F39:	FF9F      	bsr        @(-0x1, y)
     F3A:	0613      	ld         ah, @(+0x6, y)
     F3B:	0717      	ld         al, @(+0x7, y)
     F3C:	0127      	st         al, @(+0x1, y)
     F3D:	0023      	st         ah, @(0x0, y)
     F3E:	E415      	ld         al, @0xFFE4 <register uy>
     F3F:	0C34      	add        al, #+0xC
     F40:	0313      	ld         ah, @(+0x3, y)
     F41:	FF00      	**prefx    0xFF
     F42:	AE9C      	bsr        -0x152 <___libgatt_lib_db_4607:0xDF0[p]>
     F43:	0813      	ld         ah, @(+0x8, y)
     F44:	091B      	ld         x, @(+0x9, y)
     F45:	012B      	st         x, @(+0x1, y)
     F46:	0023      	st         ah, @(0x0, y)
     F47:	E415      	ld         al, @0xFFE4 <register uy>
     F48:	0F34      	add        al, #+0xF
     F49:	0413      	ld         ah, @(+0x4, y)
     F4A:	FF00      	**prefx    0xFF
     F4B:	A59C      	bsr        -0x15B <___libgatt_lib_db_4607:0xDF0[p]>
     F4C:	E411      	ld         ah, @0xFFE4 <register uy>
     F4D:	0C30      	add        ah, #+0xC
     F4E:	0023      	st         ah, @(0x0, y)
     F4F:	E415      	ld         al, @0xFFE4 <register uy>
     F50:	0F34      	add        al, #+0xF
     F51:	E111      	ld         ah, @0xFFE1 <register al>
     F52:	7E00      	**prefx    0x7E
     F53:	079C      	bsr        +0x7E07 <TimeSub48:0x8D5A[p]>
     F54:	109B      	tst        @(+0x10, y)
     F55:	03F0      	bne        +0x3 <.LFB20+0x67:0xF58[p]>
     F56:	119B      	tst        @(+0x11, y)
     F57:	03F4      	beq        +0x3 <.LFB20+0x69:0xF5A[p]>
     F58:	FF14      	ld         al, #-0x1
     F59:	0F27      	st         al, @(+0xF, y)
     F5A:	0F13      	ld         ah, @(+0xF, y)
     F5B:	131B      	ld         x, @(+0x13, y)
     F5C:	0222      	st         ah, @(+0x2, x)
     F5D:	F700      	**prefx    0xF7
     F5E:	B311      	ld         ah, @0xF6B3 <___libgatt_lib_db_2015>
     F5F:	E415      	ld         al, @0xFFE4 <register uy>
     F60:	0C34      	add        al, #+0xC
     F61:	7E00      	**prefx    0x7E
     F62:	EC9C      	bsr        +0x7DEC <TimeIncrement48:0x8D4E[p]>
     F63:	1317      	ld         al, @(+0x13, y)
     F64:	0634      	add        al, #+0x6
     F65:	3E00      	**prefx    0x3E
     F66:	6018      	ld         x, #+0x3E60
     F67:	002B      	st         x, @(0x0, y)
     F68:	E411      	ld         ah, @0xFFE4 <register uy>
     F69:	0C30      	add        ah, #+0xC
     F6A:	7E00      	**prefx    0x7E
     F6B:	EF9C      	bsr        +0x7DEF <TimeSub48:0x8D5A[p]>
     F6C:	0A13      	ld         ah, @(+0xA, y)
     F6D:	0B17      	ld         al, @(+0xB, y)
     F6E:	0127      	st         al, @(+0x1, y)
     F6F:	0023      	st         ah, @(0x0, y)
     F70:	E415      	ld         al, @0xFFE4 <register uy>
     F71:	0F34      	add        al, #+0xF
     F72:	0513      	ld         ah, @(+0x5, y)
     F73:	FE00      	**prefx    0xFE
     F74:	7C9C      	bsr        -0x184 <___libgatt_lib_db_4607:0xDF0[p]>
     F75:	E419      	ld         x, @0xFFE4 <register uy>
     F76:	0C38      	add        x, #+0xC
     F77:	002B      	st         x, @(0x0, y)
     F78:	E415      	ld         al, @0xFFE4 <register uy>
     F79:	0F34      	add        al, #+0xF
     F7A:	E111      	ld         ah, @0xFFE1 <register al>
     F7B:	7E00      	**prefx    0x7E
     F7C:	DE9C      	bsr        +0x7DDE <TimeSub48:0x8D5A[p]>
     F7D:	1217      	ld         al, @(+0x12, y)
     F7E:	0009      	**unsigned
     F7F:	0500      	**prefx    0x5
     F80:	E290      	umult      #0x4E2
     F81:	0127      	st         al, @(+0x1, y)
     F82:	0023      	st         ah, @(0x0, y)
     F83:	E415      	ld         al, @0xFFE4 <register uy>
     F84:	0C34      	add        al, #+0xC
     F85:	0010      	ld         ah, #+0x0
     F86:	FE00      	**prefx    0xFE
     F87:	699C      	bsr        -0x197 <___libgatt_lib_db_4607:0xDF0[p]>
     F88:	1317      	ld         al, @(+0x13, y)
     F89:	0334      	add        al, #+0x3
     F8A:	E419      	ld         x, @0xFFE4 <register uy>
     F8B:	0C38      	add        x, #+0xC
     F8C:	002B      	st         x, @(0x0, y)
     F8D:	E411      	ld         ah, @0xFFE4 <register uy>
     F8E:	0F30      	add        ah, #+0xF
     F8F:	7E00      	**prefx    0x7E
     F90:	CA9C      	bsr        +0x7DCA <TimeSub48:0x8D5A[p]>
     F91:	3E00      	**prefx    0x3E
     F92:	2211      	ld         ah, @0x3E22 <patch_pending_mode+0x1>
     F93:	B900      	**prefx    0xB9
     F94:	AF30      	add        ah, #-0x4751
     F95:	1417      	ld         al, @(+0x14, y)
     F96:	FF23      	st         ah, @(-0x1, y)
     F97:	FF9F      	bsr        @(-0x1, y)
     F98:	131B      	ld         x, @(+0x13, y)
     F99:	0126      	st         al, @(+0x1, x)
     F9A:	3E00      	**prefx    0x3E
     F9B:	2211      	ld         ah, @0x3E22 <patch_pending_mode+0x1>
     F9C:	B600      	**prefx    0xB6
     F9D:	2030      	add        ah, #-0x49E0
     F9E:	E315      	ld         al, @0xFFE3 <register uxl>
     F9F:	FF23      	st         ah, @(-0x1, y)
     FA0:	FF9F      	bsr        @(-0x1, y)
     FA1:	160F      	leave      #+0x16

0x00000FA2 <.LFB13>:
     FA2:	0C0B      	enter      #+0xC
     FA3:	0927      	st         al, @(+0x9, y)
     FA4:	0A23      	st         ah, @(+0xA, y)
     FA5:	E015      	ld         al, @0xFFE0 <register ah>
     FA6:	4000      	**prefx    0x40
     FA7:	00C4      	and        al, #0x4000
     FA8:	5BF4      	beq        +0x5B <___libgatt_lib_db_1085+0x3:0x1003[p]>
     FA9:	091B      	ld         x, @(+0x9, y)
     FAA:	9700      	**prefx    0x97
     FAB:	5516      	ld         al, @(-0x68AB, x)
     FAC:	0684      	cmp        al, #+0x6
     FAD:	52F0      	bne        +0x52 <.LFB13+0x5D:0xFFF[p]>
     FAE:	E315      	ld         al, @0xFFE3 <register uxl>
     FAF:	5790      	smult      #+0x57
     FB0:	E119      	ld         x, @0xFFE1 <register al>
     FB1:	9700      	**prefx    0x97
     FB2:	6B38      	add        x, #-0x6895
     FB3:	5516      	ld         al, @(+0x55, x)
     FB4:	0384      	cmp        al, #+0x3
     FB5:	03F0      	bne        +0x3 <.LFB13+0x16:0xFB8[p]>
     FB6:	0014      	ld         al, #+0x0
     FB7:	5626      	st         al, @(+0x56, x)
     FB8:	5516      	ld         al, @(+0x55, x)
     FB9:	0284      	cmp        al, #+0x2
     FBA:	45F0      	bne        +0x45 <.LFB13+0x5D:0xFFF[p]>
     FBB:	9700      	**prefx    0x97
     FBC:	5799      	tst        @0x9757 <le_device+0x2>
     FBD:	25F0      	bne        +0x25 <.LFB13+0x40:0xFE2[p]>
     FBE:	3E00      	**prefx    0x3E
     FBF:	2219      	ld         x, @0x3E22 <patch_pending_mode+0x1>
     FC0:	D200      	**prefx    0xD2
     FC1:	1E38      	add        x, #-0x2DE2
     FC2:	0917      	ld         al, @(+0x9, y)
     FC3:	E411      	ld         ah, @0xFFE4 <register uy>
     FC4:	FF2B      	st         x, @(-0x1, y)
     FC5:	FF9F      	bsr        @(-0x1, y)
     FC6:	3E00      	**prefx    0x3E
     FC7:	2211      	ld         ah, @0x3E22 <patch_pending_mode+0x1>
     FC8:	D300      	**prefx    0xD3
     FC9:	DE30      	add        ah, #-0x2D22
     FCA:	1D14      	ld         al, #+0x1D
     FCB:	FF23      	st         ah, @(-0x1, y)
     FCC:	FF9F      	bsr        @(-0x1, y)
     FCD:	0627      	st         al, @(+0x6, y)
     FCE:	3E00      	**prefx    0x3E
     FCF:	2211      	ld         ah, @0x3E22 <patch_pending_mode+0x1>
     FD0:	D200      	**prefx    0xD2
     FD1:	2630      	add        ah, #-0x2DDA
     FD2:	E415      	ld         al, @0xFFE4 <register uy>
     FD3:	FF23      	st         ah, @(-0x1, y)
     FD4:	FF9F      	bsr        @(-0x1, y)
     FD5:	0617      	ld         al, @(+0x6, y)
     FD6:	07C4      	and        al, #0x7
     FD7:	0684      	cmp        al, #+0x6
     FD8:	06F0      	bne        +0x6 <.LFB13+0x3C:0xFDE[p]>
     FD9:	4B00      	**prefx    0x4B
     FDA:	4B18      	ld         x, #+0x4B4B
     FDB:	F600      	**prefx    0xF6
     FDC:	4F29      	st         x, @0xF64F <___libgatt_lib_db_1805>
     FDD:	22E0      	bra        +0x22 <.LFB13+0x5D:0xFFF[p]>
     FDE:	7F00      	**prefx    0x7F
     FDF:	4A14      	ld         al, #+0x7F4A
     FE0:	F600      	**prefx    0xF6
     FE1:	4F25      	st         al, @0xF64F <___libgatt_lib_db_1805>
     FE2:	3E00      	**prefx    0x3E
     FE3:	2219      	ld         x, @0x3E22 <patch_pending_mode+0x1>
     FE4:	B700      	**prefx    0xB7
     FE5:	E838      	add        x, #-0x4918
     FE6:	0B00      	**prefx    0xB
     FE7:	F814      	ld         al, #+0xAF8
     FE8:	0310      	ld         ah, #+0x3
     FE9:	FF2B      	st         x, @(-0x1, y)
     FEA:	FF9F      	bsr        @(-0x1, y)
     FEB:	0727      	st         al, @(+0x7, y)
     FEC:	13F4      	beq        +0x13 <.LFB13+0x5D:0xFFF[p]>
     FED:	3E00      	**prefx    0x3E
     FEE:	2211      	ld         ah, @0x3E22 <patch_pending_mode+0x1>
     FEF:	B900      	**prefx    0xB9
     FF0:	AF30      	add        ah, #-0x4751
     FF1:	0917      	ld         al, @(+0x9, y)
     FF2:	FF23      	st         ah, @(-0x1, y)
     FF3:	FF9F      	bsr        @(-0x1, y)
     FF4:	071B      	ld         x, @(+0x7, y)
     FF5:	0126      	st         al, @(+0x1, x)
     FF6:	0214      	ld         al, #+0x2
     FF7:	0226      	st         al, @(+0x2, x)
     FF8:	3E00      	**prefx    0x3E
     FF9:	2211      	ld         ah, @0x3E22 <patch_pending_mode+0x1>
     FFA:	B600      	**prefx    0xB6
     FFB:	2030      	add        ah, #-0x49E0
     FFC:	E315      	ld         al, @0xFFE3 <register uxl>
     FFD:	FF23      	st         ah, @(-0x1, y)
     FFE:	FF9F      	bsr        @(-0x1, y)
     FFF:	0A17      	ld         al, @(+0xA, y)
    1000:	C000      	**prefx    0xC0
    1001:	FFC4      	and        al, #0xBFFF
    1002:	0A27      	st         al, @(+0xA, y)
    1003:	0A17      	ld         al, @(+0xA, y)
    1004:	04C4      	and        al, #0x4
    1005:	4CF4      	beq        +0x4C <___libgatt_lib_db_1085+0x51:0x1051[p]>
    1006:	0A17      	ld         al, @(+0xA, y)
    1007:	40C4      	and        al, #0x40
    1008:	49F0      	bne        +0x49 <___libgatt_lib_db_1085+0x51:0x1051[p]>
    1009:	3E00      	**prefx    0x3E
    100A:	1F99      	tst        @0x3E1F <patch_pending>
    100B:	04F0      	bne        +0x4 <___libgatt_lib_db_1085+0xF:0x100F[p]>
    100C:	3E00      	**prefx    0x3E
    100D:	2099      	tst        @0x3E20 <patch_rx_timing_report>
    100E:	43F4      	beq        +0x43 <___libgatt_lib_db_1085+0x51:0x1051[p]>
    100F:	091B      	ld         x, @(+0x9, y)
    1010:	9700      	**prefx    0x97
    1011:	5516      	ld         al, @(-0x68AB, x)
    1012:	0684      	cmp        al, #+0x6
    1013:	03F4      	beq        +0x3 <___libgatt_lib_db_1085+0x16:0x1016[p]>
    1014:	0484      	cmp        al, #+0x4
    1015:	3CF0      	bne        +0x3C <___libgatt_lib_db_1085+0x51:0x1051[p]>
    1016:	3E00      	**prefx    0x3E
    1017:	2211      	ld         ah, @0x3E22 <patch_pending_mode+0x1>
    1018:	B600      	**prefx    0xB6
    1019:	9730      	add        ah, #-0x4A69
    101A:	E415      	ld         al, @0xFFE4 <register uy>
    101B:	0134      	add        al, #+0x1
    101C:	FF23      	st         ah, @(-0x1, y)
    101D:	FF9F      	bsr        @(-0x1, y)
    101E:	3E00      	**prefx    0x3E
    101F:	2215      	ld         al, @0x3E22 <patch_pending_mode+0x1>
    1020:	0327      	st         al, @(+0x3, y)
    1021:	3E00      	**prefx    0x3E
    1022:	2211      	ld         ah, @0x3E22 <patch_pending_mode+0x1>
    1023:	D400      	**prefx    0xD4
    1024:	F230      	add        ah, #-0x2C0E
    1025:	0917      	ld         al, @(+0x9, y)
    1026:	FF23      	st         ah, @(-0x1, y)
    1027:	FF9F      	bsr        @(-0x1, y)
    1028:	031B      	ld         x, @(+0x3, y)
    1029:	B600      	**prefx    0xB6
    102A:	B938      	add        x, #-0x4A47
    102B:	032B      	st         x, @(+0x3, y)
    102C:	039F      	bsr        @(+0x3, y)
    102D:	0527      	st         al, @(+0x5, y)
    102E:	3E00      	**prefx    0x3E
    102F:	2211      	ld         ah, @0x3E22 <patch_pending_mode+0x1>
    1030:	D400      	**prefx    0xD4
    1031:	A630      	add        ah, #-0x2C5A
    1032:	0917      	ld         al, @(+0x9, y)
    1033:	FF23      	st         ah, @(-0x1, y)
    1034:	FF9F      	bsr        @(-0x1, y)
    1035:	0537      	add        al, @(+0x5, y)
    1036:	E119      	ld         x, @0xFFE1 <register al>
    1037:	0016      	ld         al, @(0x0, x)
    1038:	03C4      	and        al, #0x3
    1039:	0427      	st         al, @(+0x4, y)
    103A:	3E00      	**prefx    0x3E
    103B:	2211      	ld         ah, @0x3E22 <patch_pending_mode+0x1>
    103C:	B600      	**prefx    0xB6
    103D:	A030      	add        ah, #-0x4A60
    103E:	E415      	ld         al, @0xFFE4 <register uy>
    103F:	0134      	add        al, #+0x1
    1040:	FF23      	st         ah, @(-0x1, y)
    1041:	FF9F      	bsr        @(-0x1, y)
    1042:	0417      	ld         al, @(+0x4, y)
    1043:	0284      	cmp        al, #+0x2
    1044:	0DF0      	bne        +0xD <___libgatt_lib_db_1085+0x51:0x1051[p]>
    1045:	3E00      	**prefx    0x3E
    1046:	1F99      	tst        @0x3E1F <patch_pending>
    1047:	04F4      	beq        +0x4 <___libgatt_lib_db_1085+0x4B:0x104B[p]>
    1048:	0917      	ld         al, @(+0x9, y)
    1049:	0300      	**prefx    0x3
    104A:	F79C      	bsr        +0x2F7 <___libgatt_lib_db_4625:0x1341[p]>
    104B:	3E00      	**prefx    0x3E
    104C:	2099      	tst        @0x3E20 <patch_rx_timing_report>
    104D:	04F4      	beq        +0x4 <___libgatt_lib_db_1085+0x51:0x1051[p]>
    104E:	0917      	ld         al, @(+0x9, y)
    104F:	FF00      	**prefx    0xFF
    1050:	A19C      	bsr        -0x15F <.LFB20:0xEF1[p]>
    1051:	3E00      	**prefx    0x3E
    1052:	2219      	ld         x, @0x3E22 <patch_pending_mode+0x1>
    1053:	C300      	**prefx    0xC3
    1054:	5138      	add        x, #-0x3CAF
    1055:	0917      	ld         al, @(+0x9, y)
    1056:	0A13      	ld         ah, @(+0xA, y)
    1057:	FF2B      	st         x, @(-0x1, y)
    1058:	FF9F      	bsr        @(-0x1, y)
    1059:	0A9B      	tst        @(+0xA, y)
    105A:	32E8      	bpl        +0x32 <___libgatt_lib_db_1085+0x8C:0x108C[p]>
    105B:	091B      	ld         x, @(+0x9, y)
    105C:	9700      	**prefx    0x97
    105D:	559A      	tst        @(-0x68AB, x)
    105E:	2EF4      	beq        +0x2E <___libgatt_lib_db_1085+0x8C:0x108C[p]>
    105F:	0014      	ld         al, #+0x0
    1060:	0500      	**prefx    0x5
    1061:	8F9C      	bsr        +0x48F <___libgatt_lib_db_4637:0x14F0[p]>
    1062:	3E00      	**prefx    0x3E
    1063:	2219      	ld         x, @0x3E22 <patch_pending_mode+0x1>
    1064:	D200      	**prefx    0xD2
    1065:	1E38      	add        x, #-0x2DE2
    1066:	0917      	ld         al, @(+0x9, y)
    1067:	E411      	ld         ah, @0xFFE4 <register uy>
    1068:	FF2B      	st         x, @(-0x1, y)
    1069:	FF9F      	bsr        @(-0x1, y)
    106A:	3E00      	**prefx    0x3E
    106B:	2211      	ld         ah, @0x3E22 <patch_pending_mode+0x1>
    106C:	D300      	**prefx    0xD3
    106D:	DE30      	add        ah, #-0x2D22
    106E:	2514      	ld         al, #+0x25
    106F:	FF23      	st         ah, @(-0x1, y)
    1070:	FF9F      	bsr        @(-0x1, y)
    1071:	0827      	st         al, @(+0x8, y)
    1072:	3E00      	**prefx    0x3E
    1073:	2211      	ld         ah, @0x3E22 <patch_pending_mode+0x1>
    1074:	D200      	**prefx    0xD2
    1075:	2630      	add        ah, #-0x2DDA
    1076:	E415      	ld         al, @0xFFE4 <register uy>
    1077:	FF23      	st         ah, @(-0x1, y)
    1078:	FF9F      	bsr        @(-0x1, y)
    1079:	0817      	ld         al, @(+0x8, y)
    107A:	0100      	**prefx    0x1
    107B:	CA84      	cmp        al, #+0xCA
    107C:	10F0      	bne        +0x10 <___libgatt_lib_db_1085+0x8C:0x108C[p]>
    107D:	F100      	**prefx    0xF1
    107E:	1215      	ld         al, @0xF112 <___libgatt_lib_db_1698>
    107F:	04B4      	or         al, #+0x4
    1080:	F100      	**prefx    0xF1
    1081:	1225      	st         al, @0xF112 <___libgatt_lib_db_1698>
    1082:	0014      	ld         al, #+0x0
    1083:	0000      	**prefx    0x0
    1084:	0134      	add        al, #+0x1
    1085:	6484      	cmp        al, #+0x64
    1086:	FDF0      	bne        -0x3 <___libgatt_lib_db_1085+0x83:0x1083[p]>
    1087:	F100      	**prefx    0xF1
    1088:	1215      	ld         al, @0xF112 <___libgatt_lib_db_1698>
    1089:	FBC4      	and        al, #0xFFFB
    108A:	F100      	**prefx    0xF1
    108B:	1225      	st         al, @0xF112 <___libgatt_lib_db_1698>
    108C:	0C0F      	leave      #+0xC

0x0000108D <___libgatt_lib_db_4550>:
    108D:	020B      	enter      #+0x2
    108E:	F600      	**prefx    0xF6
    108F:	4C15      	ld         al, @0xF64C <___libgatt_lib_db_1778>
    1090:	0027      	st         al, @(0x0, y)
    1091:	F600      	**prefx    0xF6
    1092:	4925      	st         al, @0xF649 <___libgatt_lib_db_1779>
    1093:	E111      	ld         ah, @0xFFE1 <register al>
    1094:	B7C0      	and        ah, #0xFFB7
    1095:	0114      	ld         al, #+0x1
    1096:	FF00      	**prefx    0xFF
    1097:	0B9C      	bsr        -0xF5 <.LFB13:0xFA2[p]>
    1098:	0017      	ld         al, @(0x0, y)
    1099:	08C4      	and        al, #0x8
    109A:	0BF4      	beq        +0xB <L0+0xA:0x10A5[p]>
    109B:	9700      	**prefx    0x97
    109C:	5699      	tst        @0x9756 <le_device+0x1>
    109D:	08F4      	beq        +0x8 <L0+0xA:0x10A5[p]>
    109E:	0114      	ld         al, #+0x1
    109F:	0400      	**prefx    0x4
    10A0:	509C      	bsr        +0x450 <___libgatt_lib_db_4637:0x14F0[p]>
    10A1:	0114      	ld         al, #+0x1
    10A2:	0810      	ld         ah, #+0x8
    10A3:	FF00      	**prefx    0xFF
    10A4:	FE9C      	bsr        -0x102 <.LFB13:0xFA2[p]>
    10A5:	0017      	ld         al, @(0x0, y)
    10A6:	40C4      	and        al, #0x40
    10A7:	04F4      	beq        +0x4 <L0+0x10:0x10AB[p]>
    10A8:	0114      	ld         al, #+0x1
    10A9:	FD00      	**prefx    0xFD
    10AA:	129C      	bsr        -0x2EE <.LFB16:0xDBC[p]>
    10AB:	020F      	leave      #+0x2

0x000010AC <___libgatt_lib_db_4549>:
    10AC:	020B      	enter      #+0x2
    10AD:	F600      	**prefx    0xF6
    10AE:	4B15      	ld         al, @0xF64B <___libgatt_lib_db_1776>
    10AF:	0027      	st         al, @(0x0, y)
    10B0:	F600      	**prefx    0xF6
    10B1:	4825      	st         al, @0xF648 <___libgatt_lib_db_1777>
    10B2:	E111      	ld         ah, @0xFFE1 <register al>
    10B3:	B7C0      	and        ah, #0xFFB7
    10B4:	0014      	ld         al, #+0x0
    10B5:	FF00      	**prefx    0xFF
    10B6:	EC9C      	bsr        -0x114 <.LFB13:0xFA2[p]>
    10B7:	0017      	ld         al, @(0x0, y)
    10B8:	08C4      	and        al, #0x8
    10B9:	0BF4      	beq        +0xB <___libgatt_lib_db_4549+0x18:0x10C4[p]>
    10BA:	9700      	**prefx    0x97
    10BB:	5599      	tst        @0x9755 <le_device>
    10BC:	08F4      	beq        +0x8 <___libgatt_lib_db_4549+0x18:0x10C4[p]>
    10BD:	0014      	ld         al, #+0x0
    10BE:	0400      	**prefx    0x4
    10BF:	319C      	bsr        +0x431 <___libgatt_lib_db_4637:0x14F0[p]>
    10C0:	0014      	ld         al, #+0x0
    10C1:	0810      	ld         ah, #+0x8
    10C2:	FF00      	**prefx    0xFF
    10C3:	DF9C      	bsr        -0x121 <.LFB13:0xFA2[p]>
    10C4:	0017      	ld         al, @(0x0, y)
    10C5:	40C4      	and        al, #0x40
    10C6:	04F4      	beq        +0x4 <___libgatt_lib_db_4549+0x1E:0x10CA[p]>
    10C7:	0014      	ld         al, #+0x0
    10C8:	FD00      	**prefx    0xFD
    10C9:	F39C      	bsr        -0x30D <.LFB16:0xDBC[p]>
    10CA:	0017      	ld         al, @(0x0, y)
    10CB:	1000      	**prefx    0x10
    10CC:	00C4      	and        al, #0x1000
    10CD:	0EF4      	beq        +0xE <___libgatt_lib_db_4549+0x2F:0x10DB[p]>
    10CE:	F600      	**prefx    0xF6
    10CF:	3D15      	ld         al, @0xF63D <___libgatt_lib_db_1819>
    10D0:	F000      	**prefx    0xF0
    10D1:	FFC4      	and        al, #0xEFFF
    10D2:	F600      	**prefx    0xF6
    10D3:	3D25      	st         al, @0xF63D <___libgatt_lib_db_1819>
    10D4:	3E00      	**prefx    0x3E
    10D5:	2211      	ld         ah, @0x3E22 <patch_pending_mode+0x1>
    10D6:	E400      	**prefx    0xE4
    10D7:	F630      	add        ah, #-0x1C0A
    10D8:	0114      	ld         al, #+0x1
    10D9:	FF23      	st         ah, @(-0x1, y)
    10DA:	FF9F      	bsr        @(-0x1, y)
    10DB:	020F      	leave      #+0x2

0x000010DC <___libgatt_lib_db_4608>:
    10DC:	210B      	enter      #+0x21
    10DD:	1727      	st         al, @(+0x17, y)
    10DE:	1823      	st         ah, @(+0x18, y)
    10DF:	5790      	smult      #+0x57
    10E0:	9700      	**prefx    0x97
    10E1:	6B34      	add        al, #-0x6895
    10E2:	1227      	st         al, @(+0x12, y)
    10E3:	3E00      	**prefx    0x3E
    10E4:	2215      	ld         al, @0x3E22 <patch_pending_mode+0x1>
    10E5:	E500      	**prefx    0xE5
    10E6:	A734      	add        al, #-0x1B59
    10E7:	FF27      	st         al, @(-0x1, y)
    10E8:	FF9F      	bsr        @(-0x1, y)
    10E9:	0010      	ld         ah, #+0x0
    10EA:	121B      	ld         x, @(+0x12, y)
    10EB:	5522      	st         ah, @(+0x55, x)
    10EC:	5622      	st         ah, @(+0x56, x)
    10ED:	3E00      	**prefx    0x3E
    10EE:	2211      	ld         ah, @0x3E22 <patch_pending_mode+0x1>
    10EF:	E000      	**prefx    0xE0
    10F0:	1930      	add        ah, #-0x1FE7
    10F1:	4C16      	ld         al, @(+0x4C, x)
    10F2:	FF23      	st         ah, @(-0x1, y)
    10F3:	FF9F      	bsr        @(-0x1, y)
    10F4:	0010      	ld         ah, #+0x0
    10F5:	121B      	ld         x, @(+0x12, y)
    10F6:	4C22      	st         ah, @(+0x4C, x)
    10F7:	3E00      	**prefx    0x3E
    10F8:	2211      	ld         ah, @0x3E22 <patch_pending_mode+0x1>
    10F9:	BA00      	**prefx    0xBA
    10FA:	9430      	add        ah, #-0x466C
    10FB:	1717      	ld         al, @(+0x17, y)
    10FC:	FF23      	st         ah, @(-0x1, y)
    10FD:	FF9F      	bsr        @(-0x1, y)
    10FE:	171B      	ld         x, @(+0x17, y)
    10FF:	9700      	**prefx    0x97
    1100:	5516      	ld         al, @(-0x68AB, x)
    1101:	FF34      	add        al, #-0x1
    1102:	0184      	cmp        al, #+0x1
    1103:	102C      	bcz        +0x10 <___libgatt_lib_db_4608+0x37:0x1113[p]>
    1104:	9700      	**prefx    0x97
    1105:	5799      	tst        @0x9757 <le_device+0x2>
    1106:	0DF0      	bne        +0xD <___libgatt_lib_db_4608+0x37:0x1113[p]>
    1107:	3E00      	**prefx    0x3E
    1108:	2211      	ld         ah, @0x3E22 <patch_pending_mode+0x1>
    1109:	E000      	**prefx    0xE0
    110A:	1930      	add        ah, #-0x1FE7
    110B:	9700      	**prefx    0x97
    110C:	5915      	ld         al, @0x9759 <le_device+0x4>
    110D:	FF23      	st         ah, @(-0x1, y)
    110E:	FF9F      	bsr        @(-0x1, y)
    110F:	9700      	**prefx    0x97
    1110:	5518      	ld         x, #-0x68AB
    1111:	0010      	ld         ah, #+0x0
    1112:	0422      	st         ah, @(+0x4, x)
    1113:	3E00      	**prefx    0x3E
    1114:	2219      	ld         x, @0x3E22 <patch_pending_mode+0x1>
    1115:	D200      	**prefx    0xD2
    1116:	1E38      	add        x, #-0x2DE2
    1117:	1717      	ld         al, @(+0x17, y)
    1118:	1813      	ld         ah, @(+0x18, y)
    1119:	FF2B      	st         x, @(-0x1, y)
    111A:	FF9F      	bsr        @(-0x1, y)
    111B:	171B      	ld         x, @(+0x17, y)
    111C:	9700      	**prefx    0x97
    111D:	559A      	tst        @(-0x68AB, x)
    111E:	0100      	**prefx    0x1
    111F:	83F4      	beq        +0x83 <L0+0x73:0x11A2[p]>
    1120:	E415      	ld         al, @0xFFE4 <register uy>
    1121:	0734      	add        al, #+0x7
    1122:	0400      	**prefx    0x4
    1123:	D49C      	bsr        +0x3D4 <___libgatt_lib_db_4651:0x14F7[p]>
    1124:	0710      	ld         ah, #+0x7
    1125:	F800      	**prefx    0xF8
    1126:	5621      	st         ah, @0xF856 <___libgatt_lib_db_3128>
    1127:	2814      	ld         al, #+0x28
    1128:	F000      	**prefx    0xF0
    1129:	5625      	st         al, @0xF056 <___libgatt_lib_db_1695>
    112A:	0018      	ld         x, #+0x0
    112B:	0E2B      	st         x, @(+0xE, y)
    112C:	0F2B      	st         x, @(+0xF, y)
    112D:	0D2B      	st         x, @(+0xD, y)
    112E:	03E0      	bra        +0x3 <L0+0x2:0x1131[p]>
    112F:	0110      	ld         ah, #+0x1
    1130:	0D23      	st         ah, @(+0xD, y)
    1131:	FC00      	**prefx    0xFC
    1132:	9311      	ld         ah, @0xFB93 <___libgatt_lib_db_3122>
    1133:	E015      	ld         al, @0xFFE0 <register ah>
    1134:	0100      	**prefx    0x1
    1135:	80C4      	and        al, #0x80
    1136:	1FF4      	beq        +0x1F <L0+0x26:0x1155[p]>
    1137:	E015      	ld         al, @0xFFE0 <register ah>
    1138:	07C4      	and        al, #0x7
    1139:	1CF4      	beq        +0x1C <L0+0x26:0x1155[p]>
    113A:	0184      	cmp        al, #+0x1
    113B:	04F4      	beq        +0x4 <L0+0x10:0x113F[p]>
    113C:	0014      	ld         al, #+0x0
    113D:	0D27      	st         al, @(+0xD, y)
    113E:	F3E0      	bra        -0xD <L0+0x2:0x1131[p]>
    113F:	0D9B      	tst        @(+0xD, y)
    1140:	10F4      	beq        +0x10 <L0+0x21:0x1150[p]>
    1141:	7C00      	**prefx    0x7C
    1142:	E19C      	bsr        +0x7BE1 <TimeGet32:0x8D23[p]>
    1143:	1A27      	st         al, @(+0x1A, y)
    1144:	1923      	st         ah, @(+0x19, y)
    1145:	1A17      	ld         al, @(+0x1A, y)
    1146:	1913      	ld         ah, @(+0x19, y)
    1147:	0F57      	sub        al, @(+0xF, y)
    1148:	0E63      	subc       ah, @(+0xE, y)
    1149:	1A27      	st         al, @(+0x1A, y)
    114A:	1923      	st         ah, @(+0x19, y)
    114B:	53F0      	bne        +0x53 <L0+0x6F:0x119E[p]>
    114C:	1A1B      	ld         x, @(+0x1A, y)
    114D:	6588      	cmp        x, #+0x65
    114E:	50F8      	bcc        +0x50 <L0+0x6F:0x119E[p]>
    114F:	E0E0      	bra        -0x20 <L0:0x112F[p]>
    1150:	7C00      	**prefx    0x7C
    1151:	D29C      	bsr        +0x7BD2 <TimeGet32:0x8D23[p]>
    1152:	0F27      	st         al, @(+0xF, y)
    1153:	0E23      	st         ah, @(+0xE, y)
    1154:	DBE0      	bra        -0x25 <L0:0x112F[p]>
    1155:	0014      	ld         al, #+0x0
    1156:	0127      	st         al, @(+0x1, y)
    1157:	0118      	ld         x, #+0x1
    1158:	022B      	st         x, @(+0x2, y)
    1159:	3E00      	**prefx    0x3E
    115A:	2219      	ld         x, @0x3E22 <patch_pending_mode+0x1>
    115B:	D200      	**prefx    0xD2
    115C:	7D38      	add        x, #-0x2D83
    115D:	E411      	ld         ah, @0xFFE4 <register uy>
    115E:	0330      	add        ah, #+0x3
    115F:	0023      	st         ah, @(0x0, y)
    1160:	1A14      	ld         al, #+0x1A
    1161:	FE30      	add        ah, #-0x2
    1162:	FF2B      	st         x, @(-0x1, y)
    1163:	FF9F      	bsr        @(-0x1, y)
    1164:	3E00      	**prefx    0x3E
    1165:	2219      	ld         x, @0x3E22 <patch_pending_mode+0x1>
    1166:	D200      	**prefx    0xD2
    1167:	7D38      	add        x, #-0x2D83
    1168:	E411      	ld         ah, @0xFFE4 <register uy>
    1169:	0530      	add        ah, #+0x5
    116A:	0023      	st         ah, @(0x0, y)
    116B:	1A14      	ld         al, #+0x1A
    116C:	FD30      	add        ah, #-0x3
    116D:	FF2B      	st         x, @(-0x1, y)
    116E:	FF9F      	bsr        @(-0x1, y)
    116F:	0113      	ld         ah, @(+0x1, y)
    1170:	0C23      	st         ah, @(+0xC, y)
    1171:	021B      	ld         x, @(+0x2, y)
    1172:	E381      	cmp        ah, @0xFFE3 <register uxl>
    1173:	09F0      	bne        +0x9 <L0+0x4D:0x117C[p]>
    1174:	0413      	ld         ah, @(+0x4, y)
    1175:	0517      	ld         al, @(+0x5, y)
    1176:	1B27      	st         al, @(+0x1B, y)
    1177:	0387      	cmp        al, @(+0x3, y)
    1178:	04F0      	bne        +0x4 <L0+0x4D:0x117C[p]>
    1179:	0617      	ld         al, @(+0x6, y)
    117A:	E085      	cmp        al, @0xFFE0 <register ah>
    117B:	07F4      	beq        +0x7 <L0+0x53:0x1182[p]>
    117C:	012B      	st         x, @(+0x1, y)
    117D:	0513      	ld         ah, @(+0x5, y)
    117E:	061B      	ld         x, @(+0x6, y)
    117F:	042B      	st         x, @(+0x4, y)
    1180:	0323      	st         ah, @(+0x3, y)
    1181:	E3E0      	bra        -0x1D <L0+0x35:0x1164[p]>
    1182:	7C00      	**prefx    0x7C
    1183:	A09C      	bsr        +0x7BA0 <TimeGet32:0x8D23[p]>
    1184:	0800      	**prefx    0x8
    1185:	FFC0      	and        ah, #0x7FF
    1186:	1D27      	st         al, @(+0x1D, y)
    1187:	1C23      	st         ah, @(+0x1C, y)
    1188:	0010      	ld         ah, #+0x0
    1189:	0514      	ld         al, #+0x5
    118A:	1D57      	sub        al, @(+0x1D, y)
    118B:	1C63      	subc       ah, @(+0x1C, y)
    118C:	F925      	st         al, @0xFFF9 <(scratchpad)>
    118D:	F821      	st         ah, @0xFFF8 <(scratchpad)>
    118E:	0010      	ld         ah, #+0x0
    118F:	0C17      	ld         al, @(+0xC, y)
    1190:	10A0      	asl        #0x10
    1191:	1BB7      	or         al, @(+0x1B, y)
    1192:	0800      	**prefx    0x8
    1193:	FFC0      	and        ah, #0x7FF
    1194:	1F27      	st         al, @(+0x1F, y)
    1195:	1E23      	st         ah, @(+0x1E, y)
    1196:	F915      	ld         al, @0xFFF9 <(scratchpad)>
    1197:	F811      	ld         ah, @0xFFF8 <(scratchpad)>
    1198:	1F37      	add        al, @(+0x1F, y)
    1199:	1E43      	addc       ah, @(+0x1E, y)
    119A:	E099      	tst        @0xFFE0 <register ah>
    119B:	03F0      	bne        +0x3 <L0+0x6F:0x119E[p]>
    119C:	7484      	cmp        al, #+0x74
    119D:	94FC      	bcs        -0x6C <L0+0x2:0x1131[p]>
    119E:	E415      	ld         al, @0xFFE4 <register uy>
    119F:	0734      	add        al, #+0x7
    11A0:	0300      	**prefx    0x3
    11A1:	629C      	bsr        +0x362 <___libgatt_lib_db_4650:0x1503[p]>
    11A2:	3E00      	**prefx    0x3E
    11A3:	2219      	ld         x, @0x3E22 <patch_pending_mode+0x1>
    11A4:	D300      	**prefx    0xD3
    11A5:	C938      	add        x, #-0x2D37
    11A6:	2314      	ld         al, #+0x23
    11A7:	0010      	ld         ah, #+0x0
    11A8:	FF2B      	st         x, @(-0x1, y)
    11A9:	FF9F      	bsr        @(-0x1, y)
    11AA:	3E00      	**prefx    0x3E
    11AB:	2219      	ld         x, @0x3E22 <patch_pending_mode+0x1>
    11AC:	D300      	**prefx    0xD3
    11AD:	C938      	add        x, #-0x2D37
    11AE:	5F14      	ld         al, #+0x5F
    11AF:	0010      	ld         ah, #+0x0
    11B0:	FF2B      	st         x, @(-0x1, y)
    11B1:	FF9F      	bsr        @(-0x1, y)
    11B2:	1717      	ld         al, @(+0x17, y)
    11B3:	5790      	smult      #+0x57
    11B4:	0010      	ld         ah, #+0x0
    11B5:	E119      	ld         x, @0xFFE1 <register al>
    11B6:	9700      	**prefx    0x97
    11B7:	7722      	st         ah, @(-0x6889, x)
    11B8:	121B      	ld         x, @(+0x12, y)
    11B9:	4822      	st         ah, @(+0x48, x)
    11BA:	F100      	**prefx    0xF1
    11BB:	0315      	ld         al, @0xF103 <___libgatt_lib_db_1700>
    11BC:	FEF0      	bne        -0x2 <L0+0x8B:0x11BA[p]>
    11BD:	0010      	ld         ah, #+0x0
    11BE:	F100      	**prefx    0xF1
    11BF:	F821      	st         ah, @0xF0F8 <___libgatt_lib_db_1699>
    11C0:	3E00      	**prefx    0x3E
    11C1:	2215      	ld         al, @0x3E22 <patch_pending_mode+0x1>
    11C2:	0A27      	st         al, @(+0xA, y)
    11C3:	3E00      	**prefx    0x3E
    11C4:	2211      	ld         ah, @0x3E22 <patch_pending_mode+0x1>
    11C5:	D400      	**prefx    0xD4
    11C6:	B630      	add        ah, #-0x2C4A
    11C7:	1717      	ld         al, @(+0x17, y)
    11C8:	FF23      	st         ah, @(-0x1, y)
    11C9:	FF9F      	bsr        @(-0x1, y)
    11CA:	E111      	ld         ah, @0xFFE1 <register al>
    11CB:	0A17      	ld         al, @(+0xA, y)
    11CC:	D400      	**prefx    0xD4
    11CD:	AD34      	add        al, #-0x2C53
    11CE:	0A27      	st         al, @(+0xA, y)
    11CF:	1717      	ld         al, @(+0x17, y)
    11D0:	0A9F      	bsr        @(+0xA, y)
    11D1:	E415      	ld         al, @0xFFE4 <register uy>
    11D2:	0734      	add        al, #+0x7
    11D3:	0300      	**prefx    0x3
    11D4:	239C      	bsr        +0x323 <___libgatt_lib_db_4651:0x14F7[p]>
    11D5:	F600      	**prefx    0xF6
    11D6:	6A19      	ld         x, @0xF66A <___libgatt_lib_db_1870>
    11D7:	0B2B      	st         x, @(+0xB, y)
    11D8:	0710      	ld         ah, #+0x7
    11D9:	F800      	**prefx    0xF8
    11DA:	5621      	st         ah, @0xF856 <___libgatt_lib_db_3128>
    11DB:	4614      	ld         al, #+0x46
    11DC:	F000      	**prefx    0xF0
    11DD:	5625      	st         al, @0xF056 <___libgatt_lib_db_1695>
    11DE:	1818      	ld         x, #+0x18
    11DF:	F600      	**prefx    0xF6
    11E0:	3729      	st         x, @0xF637 <___libgatt_lib_db_1827>
    11E1:	0010      	ld         ah, #+0x0
    11E2:	F600      	**prefx    0xF6
    11E3:	6A21      	st         ah, @0xF66A <___libgatt_lib_db_1870>
    11E4:	171B      	ld         x, @(+0x17, y)
    11E5:	9700      	**prefx    0x97
    11E6:	559A      	tst        @(-0x68AB, x)
    11E7:	16F4      	beq        +0x16 <L0+0x22:0x11FD[p]>
    11E8:	F600      	**prefx    0xF6
    11E9:	3411      	ld         ah, @0xF634 <___libgatt_lib_db_1765>
    11EA:	0009      	**unsigned
    11EB:	0CA4      	lsr        #0xC
    11EC:	E099      	tst        @0xFFE0 <register ah>
    11ED:	03F4      	beq        +0x3 <L0+0x15:0x11F0[p]>
    11EE:	0480      	cmp        ah, #+0x4
    11EF:	F9F0      	bne        -0x7 <L0+0xD:0x11E8[p]>
    11F0:	3E00      	**prefx    0x3E
    11F1:	2211      	ld         ah, @0x3E22 <patch_pending_mode+0x1>
    11F2:	B900      	**prefx    0xB9
    11F3:	4130      	add        ah, #-0x46BF
    11F4:	1717      	ld         al, @(+0x17, y)
    11F5:	FF23      	st         ah, @(-0x1, y)
    11F6:	FF9F      	bsr        @(-0x1, y)
    11F7:	0434      	add        al, #+0x4
    11F8:	0040      	addc       ah, #+0x0
    11F9:	E099      	tst        @0xFFE0 <register ah>
    11FA:	03F0      	bne        +0x3 <L0+0x22:0x11FD[p]>
    11FB:	0F84      	cmp        al, #+0xF
    11FC:	ECFC      	bcs        -0x14 <L0+0xD:0x11E8[p]>
    11FD:	0B13      	ld         ah, @(+0xB, y)
    11FE:	F600      	**prefx    0xF6
    11FF:	6A21      	st         ah, @0xF66A <___libgatt_lib_db_1870>
    1200:	E415      	ld         al, @0xFFE4 <register uy>
    1201:	0734      	add        al, #+0x7
    1202:	0300      	**prefx    0x3
    1203:	009C      	bsr        +0x300 <___libgatt_lib_db_4650:0x1503[p]>
    1204:	0114      	ld         al, #+0x1
    1205:	17A3      	asl        @(+0x17, y)
    1206:	1627      	st         al, @(+0x16, y)
    1207:	F600      	**prefx    0xF6
    1208:	7A25      	st         al, @0xF67A <___libgatt_lib_db_1952>
    1209:	0014      	ld         al, #+0x0
    120A:	F600      	**prefx    0xF6
    120B:	7A25      	st         al, @0xF67A <___libgatt_lib_db_1952>
    120C:	179B      	tst        @(+0x17, y)
    120D:	02F0      	bne        +0x2 <L0+0x34:0x120F[p]>
    120E:	0114      	ld         al, #+0x1
    120F:	F600      	**prefx    0xF6
    1210:	3C25      	st         al, @0xF63C <___libgatt_lib_db_1754>
    1211:	3E00      	**prefx    0x3E
    1212:	2211      	ld         ah, @0x3E22 <patch_pending_mode+0x1>
    1213:	D300      	**prefx    0xD3
    1214:	DE30      	add        ah, #-0x2D22
    1215:	6714      	ld         al, #+0x67
    1216:	FF23      	st         ah, @(-0x1, y)
    1217:	FF9F      	bsr        @(-0x1, y)
    1218:	1527      	st         al, @(+0x15, y)
    1219:	3E00      	**prefx    0x3E
    121A:	2219      	ld         x, @0x3E22 <patch_pending_mode+0x1>
    121B:	D300      	**prefx    0xD3
    121C:	C938      	add        x, #-0x2D37
    121D:	6714      	ld         al, #+0x67
    121E:	0010      	ld         ah, #+0x0
    121F:	FF2B      	st         x, @(-0x1, y)
    1220:	FF9F      	bsr        @(-0x1, y)
    1221:	0110      	ld         ah, #+0x1
    1222:	F600      	**prefx    0xF6
    1223:	6B21      	st         ah, @0xF66B <___libgatt_lib_db_1866>
    1224:	0014      	ld         al, #+0x0
    1225:	F600      	**prefx    0xF6
    1226:	6B25      	st         al, @0xF66B <___libgatt_lib_db_1866>
    1227:	7B00      	**prefx    0x7B
    1228:	FB9C      	bsr        +0x7AFB <TimeGet32:0x8D23[p]>
    1229:	1427      	st         al, @(+0x14, y)
    122A:	1323      	st         ah, @(+0x13, y)
    122B:	17E0      	bra        +0x17 <L0+0x67:0x1242[p]>
    122C:	7B00      	**prefx    0x7B
    122D:	F69C      	bsr        +0x7AF6 <TimeGet32:0x8D23[p]>
    122E:	1127      	st         al, @(+0x11, y)
    122F:	1023      	st         ah, @(+0x10, y)
    1230:	1117      	ld         al, @(+0x11, y)
    1231:	1013      	ld         ah, @(+0x10, y)
    1232:	1457      	sub        al, @(+0x14, y)
    1233:	1363      	subc       ah, @(+0x13, y)
    1234:	E099      	tst        @0xFFE0 <register ah>
    1235:	03F0      	bne        +0x3 <L0+0x5D:0x1238[p]>
    1236:	6584      	cmp        al, #+0x65
    1237:	0BFC      	bcs        +0xB <L0+0x67:0x1242[p]>
    1238:	0318      	ld         x, #+0x3
    1239:	F100      	**prefx    0xF1
    123A:	F829      	st         x, @0xF0F8 <___libgatt_lib_db_1699>
    123B:	0010      	ld         ah, #+0x0
    123C:	F100      	**prefx    0xF1
    123D:	F821      	st         ah, @0xF0F8 <___libgatt_lib_db_1699>
    123E:	111B      	ld         x, @(+0x11, y)
    123F:	142B      	st         x, @(+0x14, y)
    1240:	1017      	ld         al, @(+0x10, y)
    1241:	1327      	st         al, @(+0x13, y)
    1242:	F600      	**prefx    0xF6
    1243:	2315      	ld         al, @0xF623 <___libgatt_lib_db_1980>
    1244:	02C4      	and        al, #0x2
    1245:	E7F0      	bne        -0x19 <L0+0x51:0x122C[p]>
    1246:	F100      	**prefx    0xF1
    1247:	0315      	ld         al, @0xF103 <___libgatt_lib_db_1700>
    1248:	E4F0      	bne        -0x1C <L0+0x51:0x122C[p]>
    1249:	161B      	ld         x, @(+0x16, y)
    124A:	F600      	**prefx    0xF6
    124B:	7A29      	st         x, @0xF67A <___libgatt_lib_db_1952>
    124C:	0010      	ld         ah, #+0x0
    124D:	F600      	**prefx    0xF6
    124E:	7A21      	st         ah, @0xF67A <___libgatt_lib_db_1952>
    124F:	0314      	ld         al, #+0x3
    1250:	F100      	**prefx    0xF1
    1251:	F825      	st         al, @0xF0F8 <___libgatt_lib_db_1699>
    1252:	3E00      	**prefx    0x3E
    1253:	2219      	ld         x, @0x3E22 <patch_pending_mode+0x1>
    1254:	D300      	**prefx    0xD3
    1255:	C938      	add        x, #-0x2D37
    1256:	6714      	ld         al, #+0x67
    1257:	1513      	ld         ah, @(+0x15, y)
    1258:	FF2B      	st         x, @(-0x1, y)
    1259:	FF9F      	bsr        @(-0x1, y)
    125A:	210F      	leave      #+0x21

0x0000125B <___libgatt_lib_db_4544>:
    125B:	030B      	enter      #+0x3
    125C:	0717      	ld         al, @(+0x7, y)
    125D:	0127      	st         al, @(+0x1, y)
    125E:	0217      	ld         al, @(+0x2, y)
    125F:	BD00      	**prefx    0xBD
    1260:	C084      	cmp        al, #-0x4340
    1261:	1FF0      	bne        +0x1F <___libgatt_lib_db_4544+0x25:0x1280[p]>
    1262:	3E00      	**prefx    0x3E
    1263:	2219      	ld         x, @0x3E22 <patch_pending_mode+0x1>
    1264:	E500      	**prefx    0xE5
    1265:	BE38      	add        x, #-0x1B42
    1266:	1100      	**prefx    0x11
    1267:	AC14      	ld         al, #+0x10AC
    1268:	0027      	st         al, @(0x0, y)
    1269:	0B14      	ld         al, #+0xB
    126A:	0210      	ld         ah, #+0x2
    126B:	FF2B      	st         x, @(-0x1, y)
    126C:	FF9F      	bsr        @(-0x1, y)
    126D:	3E00      	**prefx    0x3E
    126E:	2219      	ld         x, @0x3E22 <patch_pending_mode+0x1>
    126F:	E500      	**prefx    0xE5
    1270:	BE38      	add        x, #-0x1B42
    1271:	1100      	**prefx    0x11
    1272:	8D14      	ld         al, #+0x108D
    1273:	0027      	st         al, @(0x0, y)
    1274:	0C14      	ld         al, #+0xC
    1275:	0210      	ld         ah, #+0x2
    1276:	FF2B      	st         x, @(-0x1, y)
    1277:	FF9F      	bsr        @(-0x1, y)
    1278:	0117      	ld         al, @(+0x1, y)
    1279:	E411      	ld         ah, @0xFFE4 <register uy>
    127A:	0430      	add        ah, #+0x4
    127B:	FE00      	**prefx    0xFE
    127C:	609C      	bsr        -0x1A0 <___libgatt_lib_db_4608:0x10DC[p]>
    127D:	BD00      	**prefx    0xBD
    127E:	4914      	ld         al, #-0x42B7
    127F:	0227      	st         al, @(+0x2, y)
    1280:	030F      	leave      #+0x3

0x00001281 <___libgatt_lib_db_4615>:
    1281:	0C0B      	enter      #+0xC
    1282:	3513      	ld         ah, @(+0x35, y)
    1283:	0923      	st         ah, @(+0x9, y)
    1284:	3417      	ld         al, @(+0x34, y)
    1285:	0A27      	st         al, @(+0xA, y)
    1286:	381B      	ld         x, @(+0x38, y)
    1287:	082B      	st         x, @(+0x8, y)
    1288:	E315      	ld         al, @0xFFE3 <register uxl>
    1289:	5790      	smult      #+0x57
    128A:	9700      	**prefx    0x97
    128B:	6B34      	add        al, #-0x6895
    128C:	0727      	st         al, @(+0x7, y)
    128D:	E119      	ld         x, @0xFFE1 <register al>
    128E:	0C16      	ld         al, @(+0xC, x)
    128F:	0684      	cmp        al, #+0x6
    1290:	0100      	**prefx    0x1
    1291:	A3F0      	bne        +0xA3 <L0+0x16:0x1334[p]>
    1292:	099B      	tst        @(+0x9, y)
    1293:	06F0      	bne        +0x6 <___libgatt_lib_db_4615+0x18:0x1299[p]>
    1294:	0A1B      	ld         x, @(+0xA, y)
    1295:	0A16      	ld         al, @(+0xA, x)
    1296:	08A0      	asl        #0x8
    1297:	09B6      	or         al, @(+0x9, x)
    1298:	09E0      	bra        +0x9 <___libgatt_lib_db_4615+0x20:0x12A1[p]>
    1299:	0913      	ld         ah, @(+0x9, y)
    129A:	0180      	cmp        ah, #+0x1
    129B:	0100      	**prefx    0x1
    129C:	98F0      	bne        +0x98 <L0+0x16:0x1334[p]>
    129D:	0A1B      	ld         x, @(+0xA, y)
    129E:	0616      	ld         al, @(+0x6, x)
    129F:	08A0      	asl        #0x8
    12A0:	05B6      	or         al, @(+0x5, x)
    12A1:	0627      	st         al, @(+0x6, y)
    12A2:	3B14      	ld         al, #+0x3B
    12A3:	0200      	**prefx    0x2
    12A4:	3D9C      	bsr        +0x23D <___libgatt_lib_db_4638:0x14E1[p]>
    12A5:	0613      	ld         ah, @(+0x6, y)
    12A6:	E151      	sub        ah, @0xFFE1 <register al>
    12A7:	8000      	**prefx    0x80
    12A8:	0080      	cmp        ah, #-0x8000
    12A9:	0A2C      	bcz        +0xA <___libgatt_lib_db_4615+0x32:0x12B3[p]>
    12AA:	3E00      	**prefx    0x3E
    12AB:	2219      	ld         x, @0x3E22 <patch_pending_mode+0x1>
    12AC:	BE00      	**prefx    0xBE
    12AD:	FC38      	add        x, #-0x4204
    12AE:	0817      	ld         al, @(+0x8, y)
    12AF:	0010      	ld         ah, #+0x0
    12B0:	FF2B      	st         x, @(-0x1, y)
    12B1:	FF9F      	bsr        @(-0x1, y)
    12B2:	3E0F      	leave      #+0x3E
    12B3:	099B      	tst        @(+0x9, y)
    12B4:	3FF0      	bne        +0x3F <UART_SLOW_RATE_2K4+0x33:0x12F3[p]>
    12B5:	0010      	ld         ah, #+0x0
    12B6:	0023      	st         ah, @(0x0, y)
    12B7:	0123      	st         ah, @(+0x1, y)
    12B8:	3C14      	ld         al, #+0x3C
    12B9:	0A1B      	ld         x, @(+0xA, y)
    12BA:	0012      	ld         ah, @(0x0, x)
    12BB:	0200      	**prefx    0x2
    12BC:	BA9C      	bsr        +0x1BA <___libgatt_lib_db_4642:0x1476[p]>
    12BD:	0A1B      	ld         x, @(+0xA, y)
    12BE:	0216      	ld         al, @(+0x2, x)
    12BF:	08A0      	asl        #0x8
    12C0:	E111      	ld         ah, @0xFFE1 <register al>
    12C1:	01B2      	or         ah, @(+0x1, x)
    12C2:	0014      	ld         al, #+0x0
    12C3:	0027      	st         al, @(0x0, y)
    12C4:	0127      	st         al, @(+0x1, y)
    12C5:	3D14      	ld         al, #+0x3D
    12C6:	0200      	**prefx    0x2
    12C7:	AF9C      	bsr        +0x1AF <___libgatt_lib_db_4642:0x1476[p]>
    12C8:	0A1B      	ld         x, @(+0xA, y)
    12C9:	0416      	ld         al, @(+0x4, x)
    12CA:	08A0      	asl        #0x8
    12CB:	E111      	ld         ah, @0xFFE1 <register al>
    12CC:	03B2      	or         ah, @(+0x3, x)
    12CD:	0014      	ld         al, #+0x0
    12CE:	0027      	st         al, @(0x0, y)
    12CF:	0127      	st         al, @(+0x1, y)
    12D0:	3014      	ld         al, #+0x30
    12D1:	0200      	**prefx    0x2
    12D2:	A49C      	bsr        +0x1A4 <___libgatt_lib_db_4642:0x1476[p]>
    12D3:	0A1B      	ld         x, @(+0xA, y)
    12D4:	0616      	ld         al, @(+0x6, x)
    12D5:	08A0      	asl        #0x8
    12D6:	E111      	ld         ah, @0xFFE1 <register al>
    12D7:	05B2      	or         ah, @(+0x5, x)
    12D8:	0014      	ld         al, #+0x0
    12D9:	0027      	st         al, @(0x0, y)
    12DA:	0127      	st         al, @(+0x1, y)
    12DB:	3214      	ld         al, #+0x32
    12DC:	0200      	**prefx    0x2
    12DD:	999C      	bsr        +0x199 <___libgatt_lib_db_4642:0x1476[p]>
    12DE:	0A1B      	ld         x, @(+0xA, y)
    12DF:	0816      	ld         al, @(+0x8, x)
    12E0:	08A0      	asl        #0x8
    12E1:	E111      	ld         ah, @0xFFE1 <register al>
    12E2:	07B2      	or         ah, @(+0x7, x)
    12E3:	0014      	ld         al, #+0x0
    12E4:	0027      	st         al, @(0x0, y)
    12E5:	0127      	st         al, @(+0x1, y)
    12E6:	3114      	ld         al, #+0x31
    12E7:	0200      	**prefx    0x2
    12E8:	8E9C      	bsr        +0x18E <___libgatt_lib_db_4642:0x1476[p]>
    12E9:	0018      	ld         x, #+0x0
    12EA:	002B      	st         x, @(0x0, y)
    12EB:	012B      	st         x, @(+0x1, y)
    12EC:	2E14      	ld         al, #+0x2E
    12ED:	0613      	ld         ah, @(+0x6, y)
    12EE:	0200      	**prefx    0x2
    12EF:	879C      	bsr        +0x187 <___libgatt_lib_db_4642:0x1476[p]>
    12F0:	0810      	ld         ah, #+0x8
    12F1:	0523      	st         ah, @(+0x5, y)
    12F2:	1BE0      	bra        +0x1B <UART_SLOW_RATE_2K4+0x4D:0x130D[p]>
    12F3:	0514      	ld         al, #+0x5
    12F4:	0027      	st         al, @(0x0, y)
    12F5:	E415      	ld         al, @0xFFE4 <register uy>
    12F6:	0234      	add        al, #+0x2
    12F7:	0A13      	ld         ah, @(+0xA, y)
    12F8:	7A00      	**prefx    0x7A
    12F9:	BD9C      	bsr        +0x79BD <MemCopyPack:0x8CB6[p]>
    12FA:	0417      	ld         al, @(+0x4, y)
    12FB:	1FC4      	and        al, #0x1F
    12FC:	0427      	st         al, @(+0x4, y)
    12FD:	031B      	ld         x, @(+0x3, y)
    12FE:	002B      	st         x, @(0x0, y)
    12FF:	0127      	st         al, @(+0x1, y)
    1300:	1514      	ld         al, #+0x15
    1301:	0213      	ld         ah, @(+0x2, y)
    1302:	0100      	**prefx    0x1
    1303:	739C      	bsr        +0x173 <___libgatt_lib_db_4642:0x1476[p]>
    1304:	0010      	ld         ah, #+0x0
    1305:	0023      	st         ah, @(0x0, y)
    1306:	0123      	st         ah, @(+0x1, y)
    1307:	2F14      	ld         al, #+0x2F
    1308:	0613      	ld         ah, @(+0x6, y)
    1309:	0100      	**prefx    0x1
    130A:	6C9C      	bsr        +0x16C <___libgatt_lib_db_4642:0x1476[p]>
    130B:	1014      	ld         al, #+0x10
    130C:	0527      	st         al, @(+0x5, y)
    130D:	5F14      	ld         al, #+0x5F
    130E:	0200      	**prefx    0x2
    130F:	D29C      	bsr        +0x1D2 <___libgatt_lib_db_4638:0x14E1[p]>
    1310:	05B7      	or         al, @(+0x5, y)
    1311:	0527      	st         al, @(+0x5, y)
    1312:	0018      	ld         x, #+0x0
    1313:	002B      	st         x, @(0x0, y)
    1314:	012B      	st         x, @(+0x1, y)
    1315:	5F14      	ld         al, #+0x5F
    1316:	0513      	ld         ah, @(+0x5, y)
    1317:	0100      	**prefx    0x1
    1318:	5E9C      	bsr        +0x15E <___libgatt_lib_db_4642:0x1476[p]>
    1319:	3E14      	ld         al, #+0x3E
    131A:	0200      	**prefx    0x2
    131B:	B59C      	bsr        +0x1B5 <___libgatt_lib_db_4639:0x14D0[p]>
    131C:	FA21      	st         ah, @0xFFFA <(scratchpad)>
    131D:	E119      	ld         x, @0xFFE1 <register al>
    131E:	0114      	ld         al, #+0x1
    131F:	09A3      	asl        @(+0x9, y)
    1320:	E111      	ld         ah, @0xFFE1 <register al>
    1321:	10A4      	asr        #0x10
    1322:	F925      	st         al, @0xFFF9 <(scratchpad)>
    1323:	F821      	st         ah, @0xFFF8 <(scratchpad)>
    1324:	E315      	ld         al, @0xFFE3 <register uxl>
    1325:	F9B5      	or         al, @0xFFF9 <(scratchpad)>
    1326:	FA11      	ld         ah, @0xFFFA <(scratchpad)>
    1327:	F8B1      	or         ah, @0xFFF8 <(scratchpad)>
    1328:	E119      	ld         x, @0xFFE1 <register al>
    1329:	0023      	st         ah, @(0x0, y)
    132A:	0014      	ld         al, #+0x0
    132B:	0127      	st         al, @(+0x1, y)
    132C:	3E14      	ld         al, #+0x3E
    132D:	E311      	ld         ah, @0xFFE3 <register uxl>
    132E:	0100      	**prefx    0x1
    132F:	479C      	bsr        +0x147 <___libgatt_lib_db_4642:0x1476[p]>
    1330:	0913      	ld         ah, @(+0x9, y)
    1331:	071B      	ld         x, @(+0x7, y)
    1332:	4B22      	st         ah, @(+0x4B, x)
    1333:	3E0F      	leave      #+0x3E
    1334:	0C0F      	leave      #+0xC

0x00001335 <___libgatt_lib_db_4626>:
    1335:	020B      	enter      #+0x2
    1336:	0617      	ld         al, @(+0x6, y)
    1337:	0027      	st         al, @(0x0, y)
    1338:	E119      	ld         x, @0xFFE1 <register al>
    1339:	0016      	ld         al, @(0x0, x)
    133A:	0C84      	cmp        al, #+0xC
    133B:	05F0      	bne        +0x5 <___libgatt_lib_db_4626+0xB:0x1340[p]>
    133C:	0400      	**prefx    0x4
    133D:	B09C      	bsr        +0x3B0 <IdGetLlVerBtle:0x16ED[p]>
    133E:	001B      	ld         x, @(0x0, y)
    133F:	0126      	st         al, @(+0x1, x)
    1340:	020F      	leave      #+0x2

0x00001341 <___libgatt_lib_db_4625>:
    1341:	020B      	enter      #+0x2
    1342:	0027      	st         al, @(0x0, y)
    1343:	0100      	**prefx    0x1
    1344:	C000      	**prefx    0xC0
    1345:	7F9C      	bsr        +0xC07F <___libgatt_lib_db_4148:0xD3C4[p]>
    1346:	E111      	ld         ah, @0xFFE1 <register al>
    1347:	3E00      	**prefx    0x3E
    1348:	1F31      	add        ah, @0x3E1F <patch_pending>
    1349:	7FC0      	and        ah, #0x7F
    134A:	0017      	ld         al, @(0x0, y)
    134B:	0100      	**prefx    0x1
    134C:	C000      	**prefx    0xC0
    134D:	7E9C      	bsr        +0xC07E <___libgatt_lib_db_4152:0xD3CB[p]>
    134E:	0014      	ld         al, #+0x0
    134F:	3E00      	**prefx    0x3E
    1350:	1F25      	st         al, @0x3E1F <patch_pending>
    1351:	020F      	leave      #+0x2

0x00001352 <___libgatt_lib_db_4627>:
    1352:	1C0B      	enter      #+0x1C
    1353:	2E13      	ld         ah, @(+0x2E, y)
    1354:	1323      	st         ah, @(+0x13, y)
    1355:	2D17      	ld         al, @(+0x2D, y)
    1356:	1927      	st         al, @(+0x19, y)
    1357:	E015      	ld         al, @0xFFE0 <register ah>
    1358:	5790      	smult      #+0x57
    1359:	1A27      	st         al, @(+0x1A, y)
    135A:	9700      	**prefx    0x97
    135B:	6B34      	add        al, #-0x6895
    135C:	0D27      	st         al, @(+0xD, y)
    135D:	3E00      	**prefx    0x3E
    135E:	1F99      	tst        @0x3E1F <patch_pending>
    135F:	0100      	**prefx    0x1
    1360:	9AF0      	bne        +0x9A <___libgatt_lib_db_3646+0x7F:0x13FA[p]>
    1361:	1913      	ld         ah, @(+0x19, y)
    1362:	0130      	add        ah, #+0x1
    1363:	1223      	st         ah, @(+0x12, y)
    1364:	191B      	ld         x, @(+0x19, y)
    1365:	0112      	ld         ah, @(+0x1, x)
    1366:	0009      	**unsigned
    1367:	08A4      	lsr        #0x8
    1368:	1FC0      	and        ah, #0x1F
    1369:	1123      	st         ah, @(+0x11, y)
    136A:	0230      	add        ah, #+0x2
    136B:	0A23      	st         ah, @(+0xA, y)
    136C:	1A1B      	ld         x, @(+0x1A, y)
    136D:	9700      	**prefx    0x97
    136E:	7716      	ld         al, @(-0x6889, x)
    136F:	0484      	cmp        al, #+0x4
    1370:	03FC      	bcs        +0x3 <___libgatt_lib_db_4627+0x21:0x1373[p]>
    1371:	1113      	ld         ah, @(+0x11, y)
    1372:	0630      	add        ah, #+0x6
    1373:	1023      	st         ah, @(+0x10, y)
    1374:	1317      	ld         al, @(+0x13, y)
    1375:	0100      	**prefx    0x1
    1376:	C000      	**prefx    0xC0
    1377:	469C      	bsr        +0xC046 <___libgatt_lib_db_4149:0xD3BD[p]>
    1378:	1827      	st         al, @(+0x18, y)
    1379:	1317      	ld         al, @(+0x13, y)
    137A:	0100      	**prefx    0x1
    137B:	C000      	**prefx    0xC0
    137C:	489C      	bsr        +0xC048 <___libgatt_lib_db_4148:0xD3C4[p]>
    137D:	181B      	ld         x, @(+0x18, y)
    137E:	E159      	sub        x, @0xFFE1 <register al>
    137F:	E311      	ld         ah, @0xFFE3 <register uxl>
    1380:	FF30      	add        ah, #-0x1
    1381:	03E8      	bpl        +0x3 <___libgatt_lib_db_3646+0x9:0x1384[p]>
    1382:	0100      	**prefx    0x1
    1383:	8030      	add        ah, #+0x80
    1384:	1083      	cmp        ah, @(+0x10, y)
    1385:	75E4      	blt        +0x75 <___libgatt_lib_db_3646+0x7F:0x13FA[p]>
    1386:	7F80      	cmp        ah, #+0x7F
    1387:	47F0      	bne        +0x47 <___libgatt_lib_db_3646+0x53:0x13CE[p]>
    1388:	9700      	**prefx    0x97
    1389:	5799      	tst        @0x9757 <le_device+0x2>
    138A:	44F0      	bne        +0x44 <___libgatt_lib_db_3646+0x53:0x13CE[p]>
    138B:	0D1B      	ld         x, @(+0xD, y)
    138C:	129A      	tst        @(+0x12, x)
    138D:	41F4      	beq        +0x41 <___libgatt_lib_db_3646+0x53:0x13CE[p]>
    138E:	1317      	ld         al, @(+0x13, y)
    138F:	E411      	ld         ah, @0xFFE4 <register uy>
    1390:	0230      	add        ah, #+0x2
    1391:	0100      	**prefx    0x1
    1392:	BF00      	**prefx    0xBF
    1393:	8B9C      	bsr        +0xBE8B <___libgatt_lib_db_4118:0xD21E[p]>
    1394:	2514      	ld         al, #+0x25
    1395:	0100      	**prefx    0x1
    1396:	4B9C      	bsr        +0x14B <___libgatt_lib_db_4638:0x14E1[p]>
    1397:	0C27      	st         al, @(+0xC, y)
    1398:	E411      	ld         ah, @0xFFE4 <register uy>
    1399:	0630      	add        ah, #+0x6
    139A:	0023      	st         ah, @(0x0, y)
    139B:	3414      	ld         al, #+0x34
    139C:	FD30      	add        ah, #-0x3
    139D:	0100      	**prefx    0x1
    139E:	219C      	bsr        +0x121 <___libgatt_lib_db_4641:0x14BF[p]>
    139F:	0717      	ld         al, @(+0x7, y)
    13A0:	1727      	st         al, @(+0x17, y)
    13A1:	061B      	ld         x, @(+0x6, y)
    13A2:	162B      	st         x, @(+0x16, y)
    13A3:	7900      	**prefx    0x79
    13A4:	7F9C      	bsr        +0x797F <TimeGet32:0x8D23[p]>
    13A5:	1527      	st         al, @(+0x15, y)
    13A6:	1423      	st         ah, @(+0x14, y)
    13A7:	E415      	ld         al, @0xFFE4 <register uy>
    13A8:	0234      	add        al, #+0x2
    13A9:	0100      	**prefx    0x1
    13AA:	BE00      	**prefx    0xBE
    13AB:	7B9C      	bsr        +0xBE7B <___libgatt_lib_db_4123:0xD226[p]>
    13AC:	0C13      	ld         ah, @(+0xC, y)
    13AD:	0100      	**prefx    0x1
    13AE:	CA80      	cmp        ah, #+0xCA
    13AF:	1FF0      	bne        +0x1F <___libgatt_lib_db_3646+0x53:0x13CE[p]>
    13B0:	A000      	**prefx    0xA0
    13B1:	C011      	ld         ah, @0x9FC0 <DATA_CSTORE_START+0x3C>
    13B2:	10A4      	asr        #0x10
    13B3:	F925      	st         al, @0xFFF9 <(scratchpad)>
    13B4:	F821      	st         ah, @0xFFF8 <(scratchpad)>
    13B5:	1717      	ld         al, @(+0x17, y)
    13B6:	1613      	ld         ah, @(+0x16, y)
    13B7:	1557      	sub        al, @(+0x15, y)
    13B8:	1463      	subc       ah, @(+0x14, y)
    13B9:	F819      	ld         x, @0xFFF8 <(scratchpad)>
    13BA:	E089      	cmp        x, @0xFFE0 <register ah>
    13BB:	0620      	bgt        +0x6 <___libgatt_lib_db_3646+0x46:0x13C1[p]>
    13BC:	E089      	cmp        x, @0xFFE0 <register ah>
    13BD:	11F0      	bne        +0x11 <___libgatt_lib_db_3646+0x53:0x13CE[p]>
    13BE:	F919      	ld         x, @0xFFF9 <(scratchpad)>
    13BF:	E189      	cmp        x, @0xFFE1 <register al>
    13C0:	0E2C      	bcz        +0xE <___libgatt_lib_db_3646+0x53:0x13CE[p]>
    13C1:	F600      	**prefx    0xF6
    13C2:	3D15      	ld         al, @0xF63D <___libgatt_lib_db_1819>
    13C3:	1000      	**prefx    0x10
    13C4:	00B4      	or         al, #+0x1000
    13C5:	F600      	**prefx    0xF6
    13C6:	3D25      	st         al, @0xF63D <___libgatt_lib_db_1819>
    13C7:	0410      	ld         ah, #+0x4
    13C8:	2823      	st         ah, @(+0x28, y)
    13C9:	C900      	**prefx    0xC9
    13CA:	0814      	ld         al, #-0x36F8
    13CB:	1B27      	st         al, @(+0x1B, y)
    13CC:	0100      	**prefx    0x1
    13CD:	A8E0      	bra        +0xA8 <___libgatt_lib_db_3646+0xFA:0x1475[p]>
    13CE:	121B      	ld         x, @(+0x12, y)
    13CF:	009A      	tst        @(0x0, x)
    13D0:	38E8      	bpl        +0x38 <___libgatt_lib_db_3646+0x8D:0x1408[p]>
    13D1:	3F00      	**prefx    0x3F
    13D2:	2919      	ld         x, @0x3F29 <___libgatt_lib_db_4628>
    13D3:	0010      	ld         ah, #+0x0
    13D4:	0B23      	st         ah, @(+0xB, y)
    13D5:	0B17      	ld         al, @(+0xB, y)
    13D6:	0390      	smult      #+0x3
    13D7:	F825      	st         al, @0xFFF8 <(scratchpad)>
    13D8:	0016      	ld         al, @(0x0, x)
    13D9:	0284      	cmp        al, #+0x2
    13DA:	1AF0      	bne        +0x1A <___libgatt_lib_db_3646+0x79:0x13F4[p]>
    13DB:	1313      	ld         ah, @(+0x13, y)
    13DC:	0022      	st         ah, @(0x0, x)
    13DD:	3F00      	**prefx    0x3F
    13DE:	2911      	ld         ah, @0x3F29 <___libgatt_lib_db_4628>
    13DF:	F831      	add        ah, @0xFFF8 <(scratchpad)>
    13E0:	121B      	ld         x, @(+0x12, y)
    13E1:	0116      	ld         al, @(+0x1, x)
    13E2:	0100      	**prefx    0x1
    13E3:	FFC4      	and        al, #0xFF
    13E4:	E019      	ld         x, @0xFFE0 <register ah>
    13E5:	0126      	st         al, @(+0x1, x)
    13E6:	3F00      	**prefx    0x3F
    13E7:	2919      	ld         x, @0x3F29 <___libgatt_lib_db_4628>
    13E8:	F839      	add        x, @0xFFF8 <(scratchpad)>
    13E9:	092B      	st         x, @(+0x9, y)
    13EA:	1317      	ld         al, @(+0x13, y)
    13EB:	0100      	**prefx    0x1
    13EC:	C000      	**prefx    0xC0
    13ED:	D79C      	bsr        +0xBFD7 <___libgatt_lib_db_4148:0xD3C4[p]>
    13EE:	091B      	ld         x, @(+0x9, y)
    13EF:	0226      	st         al, @(+0x2, x)
    13F0:	0B13      	ld         ah, @(+0xB, y)
    13F1:	0480      	cmp        ah, #+0x4
    13F2:	11FC      	bcs        +0x11 <___libgatt_lib_db_3646+0x88:0x1403[p]>
    13F3:	07E0      	bra        +0x7 <___libgatt_lib_db_3646+0x7F:0x13FA[p]>
    13F4:	0B17      	ld         al, @(+0xB, y)
    13F5:	0134      	add        al, #+0x1
    13F6:	0B27      	st         al, @(+0xB, y)
    13F7:	0338      	add        x, #+0x3
    13F8:	0484      	cmp        al, #+0x4
    13F9:	DCF0      	bne        -0x24 <___libgatt_lib_db_3646+0x5A:0x13D5[p]>
    13FA:	0110      	ld         ah, #+0x1
    13FB:	1A1B      	ld         x, @(+0x1A, y)
    13FC:	9800      	**prefx    0x98
    13FD:	B222      	st         ah, @(-0x684E, x)
    13FE:	0414      	ld         al, #+0x4
    13FF:	2827      	st         al, @(+0x28, y)
    1400:	C900      	**prefx    0xC9
    1401:	0818      	ld         x, #-0x36F8
    1402:	72E0      	bra        +0x72 <___libgatt_lib_db_3646+0xF9:0x1474[p]>
    1403:	191B      	ld         x, @(+0x19, y)
    1404:	0112      	ld         ah, @(+0x1, x)
    1405:	8000      	**prefx    0x80
    1406:	FFC0      	and        ah, #0x7FFF
    1407:	0122      	st         ah, @(+0x1, x)
    1408:	191B      	ld         x, @(+0x19, y)
    1409:	0112      	ld         ah, @(+0x1, x)
    140A:	03C0      	and        ah, #0x3
    140B:	0E23      	st         ah, @(+0xE, y)
    140C:	2823      	st         ah, @(+0x28, y)
    140D:	E415      	ld         al, @0xFFE4 <register uy>
    140E:	0434      	add        al, #+0x4
    140F:	0100      	**prefx    0x1
    1410:	A200      	**prefx    0xA2
    1411:	869C      	bsr        +0xA186 <___libgatt_lib_db_3944:0xB597[p]>
    1412:	1317      	ld         al, @(+0x13, y)
    1413:	0100      	**prefx    0x1
    1414:	C000      	**prefx    0xC0
    1415:	E59C      	bsr        +0xBFE5 <___libgatt_lib_db_4150:0xD3FA[p]>
    1416:	0100      	**prefx    0x1
    1417:	A200      	**prefx    0xA2
    1418:	A19C      	bsr        +0xA1A1 <___libgatt_lib_db_3947:0xB5B9[p]>
    1419:	0F27      	st         al, @(+0xF, y)
    141A:	1317      	ld         al, @(+0x13, y)
    141B:	0100      	**prefx    0x1
    141C:	C000      	**prefx    0xC0
    141D:	A79C      	bsr        +0xBFA7 <___libgatt_lib_db_4148:0xD3C4[p]>
    141E:	0F37      	add        al, @(+0xF, y)
    141F:	0827      	st         al, @(+0x8, y)
    1420:	0A17      	ld         al, @(+0xA, y)
    1421:	0027      	st         al, @(0x0, y)
    1422:	0817      	ld         al, @(+0x8, y)
    1423:	1213      	ld         ah, @(+0x12, y)
    1424:	7900      	**prefx    0x79
    1425:	BB9C      	bsr        +0x78BB <MemCopyUnPack:0x8CE0[p]>
    1426:	1A1B      	ld         x, @(+0x1A, y)
    1427:	9700      	**prefx    0x97
    1428:	7716      	ld         al, @(-0x6889, x)
    1429:	0384      	cmp        al, #+0x3
    142A:	0E2C      	bcz        +0xE <___libgatt_lib_db_3646+0xBD:0x1438[p]>
    142B:	0E13      	ld         ah, @(+0xE, y)
    142C:	0023      	st         ah, @(0x0, y)
    142D:	0014      	ld         al, #+0x0
    142E:	0127      	st         al, @(+0x1, y)
    142F:	1317      	ld         al, @(+0x13, y)
    1430:	1113      	ld         ah, @(+0x11, y)
    1431:	0100      	**prefx    0x1
    1432:	D200      	**prefx    0xD2
    1433:	7B9C      	bsr        +0xD27B <___libgatt_lib_db_4316:0xE6AE[p]>
    1434:	081B      	ld         x, @(+0x8, y)
    1435:	0116      	ld         al, @(+0x1, x)
    1436:	0434      	add        al, #+0x4
    1437:	0126      	st         al, @(+0x1, x)
    1438:	E415      	ld         al, @0xFFE4 <register uy>
    1439:	0434      	add        al, #+0x4
    143A:	0100      	**prefx    0x1
    143B:	A100      	**prefx    0xA1
    143C:	649C      	bsr        +0xA164 <___libgatt_lib_db_3945:0xB5A0[p]>
    143D:	3E00      	**prefx    0x3E
    143E:	2199      	tst        @0x3E21 <patch_pending_mode>
    143F:	08F4      	beq        +0x8 <___libgatt_lib_db_3646+0xCC:0x1447[p]>
    1440:	0E13      	ld         ah, @(+0xE, y)
    1441:	0380      	cmp        ah, #+0x3
    1442:	05F4      	beq        +0x5 <___libgatt_lib_db_3646+0xCC:0x1447[p]>
    1443:	1017      	ld         al, @(+0x10, y)
    1444:	3E00      	**prefx    0x3E
    1445:	1F25      	st         al, @0x3E1F <patch_pending>
    1446:	2CE0      	bra        +0x2C <___libgatt_lib_db_3646+0xF7:0x1472[p]>
    1447:	1317      	ld         al, @(+0x13, y)
    1448:	0100      	**prefx    0x1
    1449:	BF00      	**prefx    0xBF
    144A:	7A9C      	bsr        +0xBF7A <___libgatt_lib_db_4148:0xD3C4[p]>
    144B:	E111      	ld         ah, @0xFFE1 <register al>
    144C:	1033      	add        ah, @(+0x10, y)
    144D:	7FC0      	and        ah, #0x7F
    144E:	1317      	ld         al, @(+0x13, y)
    144F:	0100      	**prefx    0x1
    1450:	BF00      	**prefx    0xBF
    1451:	7A9C      	bsr        +0xBF7A <___libgatt_lib_db_4152:0xD3CB[p]>
    1452:	9700      	**prefx    0x97
    1453:	5799      	tst        @0x9757 <le_device+0x2>
    1454:	1EF4      	beq        +0x1E <___libgatt_lib_db_3646+0xF7:0x1472[p]>
    1455:	1317      	ld         al, @(+0x13, y)
    1456:	E411      	ld         ah, @0xFFE4 <register uy>
    1457:	0230      	add        ah, #+0x2
    1458:	0100      	**prefx    0x1
    1459:	BE00      	**prefx    0xBE
    145A:	C49C      	bsr        +0xBDC4 <___libgatt_lib_db_4118:0xD21E[p]>
    145B:	E419      	ld         x, @0xFFE4 <register uy>
    145C:	0638      	add        x, #+0x6
    145D:	002B      	st         x, @(0x0, y)
    145E:	3814      	ld         al, #+0x38
    145F:	E411      	ld         ah, @0xFFE4 <register uy>
    1460:	0330      	add        ah, #+0x3
    1461:	0100      	**prefx    0x1
    1462:	BE00      	**prefx    0xBE
    1463:	1A9C      	bsr        +0xBE1A <___libgatt_lib_db_4122:0xD27D[p]>
    1464:	E415      	ld         al, @0xFFE4 <register uy>
    1465:	0234      	add        al, #+0x2
    1466:	0100      	**prefx    0x1
    1467:	BE00      	**prefx    0xBE
    1468:	BE9C      	bsr        +0xBDBE <___libgatt_lib_db_4123:0xD226[p]>
    1469:	0613      	ld         ah, @(+0x6, y)
    146A:	0717      	ld         al, @(+0x7, y)
    146B:	0127      	st         al, @(+0x1, y)
    146C:	0023      	st         ah, @(0x0, y)
    146D:	3E00      	**prefx    0x3E
    146E:	6014      	ld         al, #+0x3E60
    146F:	0313      	ld         ah, @(+0x3, y)
    1470:	F900      	**prefx    0xF9
    1471:	7F9C      	bsr        -0x681 <___libgatt_lib_db_4607:0xDF0[p]>
    1472:	C900      	**prefx    0xC9
    1473:	F618      	ld         x, #-0x370A
    1474:	1B2B      	st         x, @(+0x1B, y)
    1475:	1C0F      	leave      #+0x1C

0x00001476 <___libgatt_lib_db_4642>:
    1476:	050B      	enter      #+0x5
    1477:	0027      	st         al, @(0x0, y)
    1478:	0123      	st         ah, @(+0x1, y)
    1479:	0517      	ld         al, @(+0x5, y)
    147A:	0227      	st         al, @(+0x2, y)
    147B:	0617      	ld         al, @(+0x6, y)
    147C:	0327      	st         al, @(+0x3, y)
    147D:	0100      	**prefx    0x1
    147E:	D000      	**prefx    0xD0
    147F:	289C      	bsr        +0xD028 <___libgatt_lib_db_4276:0xE4A7[p]>
    1480:	0017      	ld         al, @(0x0, y)
    1481:	F600      	**prefx    0xF6
    1482:	2C25      	st         al, @0xF62C <___libgatt_lib_db_1756>
    1483:	0117      	ld         al, @(+0x1, y)
    1484:	F600      	**prefx    0xF6
    1485:	2D25      	st         al, @0xF62D <___libgatt_lib_db_1760>
    1486:	0217      	ld         al, @(+0x2, y)
    1487:	F600      	**prefx    0xF6
    1488:	2E25      	st         al, @0xF62E <___libgatt_lib_db_1761>
    1489:	0317      	ld         al, @(+0x3, y)
    148A:	F600      	**prefx    0xF6
    148B:	2F25      	st         al, @0xF62F <___libgatt_lib_db_1762>
    148C:	0114      	ld         al, #+0x1
    148D:	F600      	**prefx    0xF6
    148E:	2B25      	st         al, @0xF62B <___libgatt_lib_db_1763>
    148F:	F600      	**prefx    0xF6
    1490:	2A11      	ld         ah, @0xF62A <___libgatt_lib_db_1755>
    1491:	F600      	**prefx    0xF6
    1492:	2A15      	ld         al, @0xF62A <___libgatt_lib_db_1755>
    1493:	E0B5      	or         al, @0xFFE0 <register ah>
    1494:	FBF4      	beq        -0x5 <___libgatt_lib_db_4642+0x19:0x148F[p]>
    1495:	0014      	ld         al, #+0x0
    1496:	F600      	**prefx    0xF6
    1497:	2B25      	st         al, @0xF62B <___libgatt_lib_db_1763>
    1498:	041B      	ld         x, @(+0x4, y)
    1499:	053C      	add        y, #+0x5
    149A:	0100      	**prefx    0x1
    149B:	D000      	**prefx    0xD0
    149C:	14E0      	bra        +0xD014 <___libgatt_lib_db_4283:0xE4B0[p]>

0x0000149D <___libgatt_lib_db_4636>:
    149D:	060B      	enter      #+0x6
    149E:	0427      	st         al, @(+0x4, y)
    149F:	E415      	ld         al, @0xFFE4 <register uy>
    14A0:	579C      	bsr        +0x57 <___libgatt_lib_db_4651:0x14F7[p]>
    14A1:	0714      	ld         al, #+0x7
    14A2:	F800      	**prefx    0xF8
    14A3:	5625      	st         al, @0xF856 <___libgatt_lib_db_3128>
    14A4:	4618      	ld         x, #+0x46
    14A5:	F000      	**prefx    0xF0
    14A6:	5629      	st         x, @0xF056 <___libgatt_lib_db_1695>
    14A7:	0417      	ld         al, @(+0x4, y)
    14A8:	03A0      	asl        #0x3
    14A9:	F600      	**prefx    0xF6
    14AA:	3725      	st         al, @0xF637 <___libgatt_lib_db_1827>
    14AB:	F600      	**prefx    0xF6
    14AC:	3415      	ld         al, @0xF634 <___libgatt_lib_db_1765>
    14AD:	40C4      	and        al, #0x40
    14AE:	08F0      	bne        +0x8 <___libgatt_lib_db_4636+0x19:0x14B6[p]>
    14AF:	F600      	**prefx    0xF6
    14B0:	3315      	ld         al, @0xF633 <___libgatt_lib_db_1764>
    14B1:	0018      	ld         x, #+0x0
    14B2:	032B      	st         x, @(+0x3, y)
    14B3:	0100      	**prefx    0x1
    14B4:	FFC4      	and        al, #0xFF
    14B5:	03F0      	bne        +0x3 <___libgatt_lib_db_4636+0x1B:0x14B8[p]>
    14B6:	0114      	ld         al, #+0x1
    14B7:	0327      	st         al, @(+0x3, y)
    14B8:	E415      	ld         al, @0xFFE4 <register uy>
    14B9:	4A9C      	bsr        +0x4A <___libgatt_lib_db_4650:0x1503[p]>
    14BA:	0317      	ld         al, @(+0x3, y)
    14BB:	060F      	leave      #+0x6

0x000014BC <.LFB4>:
    14BC:	F600      	**prefx    0xF6
    14BD:	3C15      	ld         al, @0xF63C <___libgatt_lib_db_1754>
    14BE:	DFE0      	bra        -0x21 <___libgatt_lib_db_4636:0x149D[p]>

0x000014BF <___libgatt_lib_db_4641>:
    14BF:	040B      	enter      #+0x4
    14C0:	0127      	st         al, @(+0x1, y)
    14C1:	0223      	st         ah, @(+0x2, y)
    14C2:	FA9C      	bsr        -0x6 <.LFB4:0x14BC[p]>
    14C3:	E199      	tst        @0xFFE1 <register al>
    14C4:	FEF4      	beq        -0x2 <___libgatt_lib_db_4641+0x3:0x14C2[p]>
    14C5:	0417      	ld         al, @(+0x4, y)
    14C6:	0027      	st         al, @(0x0, y)
    14C7:	0117      	ld         al, @(+0x1, y)
    14C8:	0213      	ld         ah, @(+0x2, y)
    14C9:	0100      	**prefx    0x1
    14CA:	BE00      	**prefx    0xBE
    14CB:	B29C      	bsr        +0xBDB2 <___libgatt_lib_db_4122:0xD27D[p]>
    14CC:	F09C      	bsr        -0x10 <.LFB4:0x14BC[p]>
    14CD:	E199      	tst        @0xFFE1 <register al>
    14CE:	F4F4      	beq        -0xC <___libgatt_lib_db_4641+0x3:0x14C2[p]>
    14CF:	040F      	leave      #+0x4

0x000014D0 <___libgatt_lib_db_4639>:
    14D0:	040B      	enter      #+0x4
    14D1:	0027      	st         al, @(0x0, y)
    14D2:	EA9C      	bsr        -0x16 <.LFB4:0x14BC[p]>
    14D3:	E199      	tst        @0xFFE1 <register al>
    14D4:	FEF4      	beq        -0x2 <___libgatt_lib_db_4639+0x2:0x14D2[p]>
    14D5:	0017      	ld         al, @(0x0, y)
    14D6:	0100      	**prefx    0x1
    14D7:	BE00      	**prefx    0xBE
    14D8:	DC9C      	bsr        +0xBDDC <___libgatt_lib_db_4120:0xD2B4[p]>
    14D9:	0227      	st         al, @(+0x2, y)
    14DA:	0123      	st         ah, @(+0x1, y)
    14DB:	E19C      	bsr        -0x1F <.LFB4:0x14BC[p]>
    14DC:	E199      	tst        @0xFFE1 <register al>
    14DD:	F5F4      	beq        -0xB <___libgatt_lib_db_4639+0x2:0x14D2[p]>
    14DE:	0217      	ld         al, @(+0x2, y)
    14DF:	0113      	ld         ah, @(+0x1, y)
    14E0:	040F      	leave      #+0x4

0x000014E1 <___libgatt_lib_db_4638>:
    14E1:	030B      	enter      #+0x3
    14E2:	0127      	st         al, @(+0x1, y)
    14E3:	D99C      	bsr        -0x27 <.LFB4:0x14BC[p]>
    14E4:	E199      	tst        @0xFFE1 <register al>
    14E5:	FEF4      	beq        -0x2 <___libgatt_lib_db_4638+0x2:0x14E3[p]>
    14E6:	0117      	ld         al, @(+0x1, y)
    14E7:	0100      	**prefx    0x1
    14E8:	BE00      	**prefx    0xBE
    14E9:	F59C      	bsr        +0xBDF5 <___libgatt_lib_db_4119:0xD2DE[p]>
    14EA:	0027      	st         al, @(0x0, y)
    14EB:	D19C      	bsr        -0x2F <.LFB4:0x14BC[p]>
    14EC:	E199      	tst        @0xFFE1 <register al>
    14ED:	F6F4      	beq        -0xA <___libgatt_lib_db_4638+0x2:0x14E3[p]>
    14EE:	0017      	ld         al, @(0x0, y)
    14EF:	030F      	leave      #+0x3

0x000014F0 <___libgatt_lib_db_4637>:
    14F0:	020B      	enter      #+0x2
    14F1:	0027      	st         al, @(0x0, y)
    14F2:	0017      	ld         al, @(0x0, y)
    14F3:	AA9C      	bsr        -0x56 <___libgatt_lib_db_4636:0x149D[p]>
    14F4:	E199      	tst        @0xFFE1 <register al>
    14F5:	FDF4      	beq        -0x3 <___libgatt_lib_db_4637+0x2:0x14F2[p]>
    14F6:	020F      	leave      #+0x2

0x000014F7 <___libgatt_lib_db_4651>:
    14F7:	010B      	enter      #+0x1
    14F8:	E119      	ld         x, @0xFFE1 <register al>
    14F9:	F800      	**prefx    0xF8
    14FA:	5615      	ld         al, @0xF856 <___libgatt_lib_db_3128>
    14FB:	0026      	st         al, @(0x0, x)
    14FC:	F000      	**prefx    0xF0
    14FD:	5615      	ld         al, @0xF056 <___libgatt_lib_db_1695>
    14FE:	0126      	st         al, @(+0x1, x)
    14FF:	F600      	**prefx    0xF6
    1500:	3715      	ld         al, @0xF637 <___libgatt_lib_db_1827>
    1501:	0226      	st         al, @(+0x2, x)
    1502:	010F      	leave      #+0x1

0x00001503 <___libgatt_lib_db_4650>:
    1503:	010B      	enter      #+0x1
    1504:	E119      	ld         x, @0xFFE1 <register al>
    1505:	0016      	ld         al, @(0x0, x)
    1506:	F800      	**prefx    0xF8
    1507:	5625      	st         al, @0xF856 <___libgatt_lib_db_3128>
    1508:	0116      	ld         al, @(+0x1, x)
    1509:	F000      	**prefx    0xF0
    150A:	5625      	st         al, @0xF056 <___libgatt_lib_db_1695>
    150B:	0216      	ld         al, @(+0x2, x)
    150C:	F600      	**prefx    0xF6
    150D:	3725      	st         al, @0xF637 <___libgatt_lib_db_1827>
    150E:	010F      	leave      #+0x1

0x0000150F <___libgatt_lib_db_4656>:
    150F:	010B      	enter      #+0x1
    1510:	3E00      	**prefx    0x3E
    1511:	2419      	ld         x, @0x3E24 <patch_pending_mode+0x3>
    1512:	0416      	ld         al, @(+0x4, x)
    1513:	010F      	leave      #+0x1

0x00001514 <___libgatt_lib_db_4206>:
    1514:	3E00      	**prefx    0x3E
    1515:	3599      	tst        @0x3E35 <enable_lo_offset_adc_update>
    1516:	0AF4      	beq        +0xA <___libgatt_lib_db_4206+0xC:0x1520[p]>
    1517:	F000      	**prefx    0xF0
    1518:	2A15      	ld         al, @0xF02A <___libgatt_lib_db_918>
    1519:	FF00      	**prefx    0xFF
    151A:	00C4      	and        al, #0xFF00
    151B:	0100      	**prefx    0x1
    151C:	BFB4      	or         al, #+0xBF
    151D:	F000      	**prefx    0xF0
    151E:	2A25      	st         al, @0xF02A <___libgatt_lib_db_918>
    151F:	08E0      	bra        +0x8 <___libgatt_lib_db_4206+0x13:0x1527[p]>
    1520:	0014      	ld         al, #+0x0
    1521:	F700      	**prefx    0xF7
    1522:	8925      	st         al, @0xF689 <___libgatt_lib_db_1907>
    1523:	0400      	**prefx    0x4
    1524:	FF14      	ld         al, #+0x3FF
    1525:	F700      	**prefx    0xF7
    1526:	8A25      	st         al, @0xF68A <___libgatt_lib_db_1906>
    1527:	0200      	**prefx    0x2
    1528:	0014      	ld         al, #+0x200
    1529:	9C00      	**prefx    0x9C
    152A:	8625      	st         al, @0x9B86 <DATA_RCLUTS_START+0x6>
    152B:	9C00      	**prefx    0x9C
    152C:	A625      	st         al, @0x9BA6 <DATA_RCLUTS_START+0x26>
    152D:	0014      	ld         al, #+0x0
    152E:	F200      	**prefx    0xF2
    152F:	2425      	st         al, @0xF224 <___libgatt_lib_db_1596>
    1530:	00E2      	bra        0x0, x

0x00001531 <___libgatt_lib_db_4208>:
    1531:	0117      	ld         al, @(+0x1, y)
    1532:	D700      	**prefx    0xD7
    1533:	E784      	cmp        al, #-0x2919
    1534:	0DF0      	bne        +0xD <___libgatt_lib_db_4208+0x10:0x1541[p]>
    1535:	0200      	**prefx    0x2
    1536:	4814      	ld         al, #+0x248
    1537:	F000      	**prefx    0xF0
    1538:	0F25      	st         al, @0xF00F <___libgatt_lib_db_1018>
    1539:	0100      	**prefx    0x1
    153A:	6814      	ld         al, #+0x168
    153B:	F700      	**prefx    0xF7
    153C:	8925      	st         al, @0xF689 <___libgatt_lib_db_1907>
    153D:	0300      	**prefx    0x3
    153E:	B014      	ld         al, #+0x2B0
    153F:	F700      	**prefx    0xF7
    1540:	8A25      	st         al, @0xF68A <___libgatt_lib_db_1906>
    1541:	00E2      	bra        0x0, x

0x00001542 <___libgatt_lib_db_4209>:
    1542:	020B      	enter      #+0x2
    1543:	0217      	ld         al, @(+0x2, y)
    1544:	DA00      	**prefx    0xDA
    1545:	AD84      	cmp        al, #-0x2653
    1546:	40F0      	bne        +0x40 <___libgatt_lib_db_4209+0x44:0x1586[p]>
    1547:	3317      	ld         al, @(+0x33, y)
    1548:	46F0      	bne        +0x46 <___libgatt_lib_db_4209+0x4C:0x158E[p]>
    1549:	3E00      	**prefx    0x3E
    154A:	2315      	ld         al, @0x3E23 <patch_pending_mode+0x2>
    154B:	F300      	**prefx    0xF3
    154C:	F234      	add        al, #-0xD0E
    154D:	FF27      	st         al, @(-0x1, y)
    154E:	FF9F      	bsr        @(-0x1, y)
    154F:	E111      	ld         ah, @0xFFE1 <register al>
    1550:	3517      	ld         al, @(+0x35, y)
    1551:	1AF0      	bne        +0x1A <___libgatt_lib_db_4209+0x29:0x156B[p]>
    1552:	F000      	**prefx    0xF0
    1553:	1D15      	ld         al, @0xF01D <___libgatt_lib_db_1003>
    1554:	F100      	**prefx    0xF1
    1555:	FFC4      	and        al, #0xF0FF
    1556:	0500      	**prefx    0x5
    1557:	00B4      	or         al, #+0x500
    1558:	F000      	**prefx    0xF0
    1559:	1D25      	st         al, @0xF01D <___libgatt_lib_db_1003>
    155A:	0200      	**prefx    0x2
    155B:	1D80      	cmp        ah, #+0x21D
    155C:	04F8      	bcc        +0x4 <___libgatt_lib_db_4209+0x1E:0x1560[p]>
    155D:	0200      	**prefx    0x2
    155E:	ED14      	ld         al, #+0x1ED
    155F:	03E0      	bra        +0x3 <___libgatt_lib_db_4209+0x20:0x1562[p]>
    1560:	0200      	**prefx    0x2
    1561:	FF14      	ld         al, #+0x1FF
    1562:	0027      	st         al, @(0x0, y)
    1563:	3E00      	**prefx    0x3E
    1564:	2311      	ld         ah, @0x3E23 <patch_pending_mode+0x2>
    1565:	FB00      	**prefx    0xFB
    1566:	0230      	add        ah, #-0x4FE
    1567:	0314      	ld         al, #+0x3
    1568:	FF23      	st         ah, @(-0x1, y)
    1569:	FF9F      	bsr        @(-0x1, y)
    156A:	12E0      	bra        +0x12 <___libgatt_lib_db_4209+0x3A:0x157C[p]>
    156B:	F000      	**prefx    0xF0
    156C:	1D15      	ld         al, @0xF01D <___libgatt_lib_db_1003>
    156D:	F100      	**prefx    0xF1
    156E:	FFC4      	and        al, #0xF0FF
    156F:	0600      	**prefx    0x6
    1570:	00B4      	or         al, #+0x600
    1571:	F000      	**prefx    0xF0
    1572:	1D25      	st         al, @0xF01D <___libgatt_lib_db_1003>
    1573:	0200      	**prefx    0x2
    1574:	1D80      	cmp        ah, #+0x21D
    1575:	04F8      	bcc        +0x4 <___libgatt_lib_db_4209+0x37:0x1579[p]>
    1576:	0200      	**prefx    0x2
    1577:	1214      	ld         al, #+0x212
    1578:	03E0      	bra        +0x3 <___libgatt_lib_db_4209+0x39:0x157B[p]>
    1579:	0200      	**prefx    0x2
    157A:	2714      	ld         al, #+0x227
    157B:	0027      	st         al, @(0x0, y)
    157C:	0017      	ld         al, @(0x0, y)
    157D:	3427      	st         al, @(+0x34, y)
    157E:	3E00      	**prefx    0x3E
    157F:	2311      	ld         ah, @0x3E23 <patch_pending_mode+0x2>
    1580:	B300      	**prefx    0xB3
    1581:	5C30      	add        ah, #-0x4CA4
    1582:	1414      	ld         al, #+0x14
    1583:	FF23      	st         ah, @(-0x1, y)
    1584:	FF9F      	bsr        @(-0x1, y)
    1585:	09E0      	bra        +0x9 <___libgatt_lib_db_4209+0x4C:0x158E[p]>
    1586:	D600      	**prefx    0xD6
    1587:	7284      	cmp        al, #-0x298E
    1588:	06F0      	bne        +0x6 <___libgatt_lib_db_4209+0x4C:0x158E[p]>
    1589:	0014      	ld         al, #+0x0
    158A:	0527      	st         al, @(+0x5, y)
    158B:	D700      	**prefx    0xD7
    158C:	8414      	ld         al, #-0x297C
    158D:	0227      	st         al, @(+0x2, y)
    158E:	020F      	leave      #+0x2

0x0000158F <.LFB10>:
    158F:	010B      	enter      #+0x1
    1590:	1384      	cmp        al, #+0x13
    1591:	0428      	ble        +0x4 <.LFB10+0x6:0x1595[p]>
    1592:	0014      	ld         al, #+0x0
    1593:	F925      	st         al, @0xFFF9 <(scratchpad)>
    1594:	0FE0      	bra        +0xF <.LFB10+0x14:0x15A3[p]>
    1595:	1418      	ld         x, #+0x14
    1596:	E159      	sub        x, @0xFFE1 <register al>
    1597:	E311      	ld         ah, @0xFFE3 <register uxl>
    1598:	0730      	add        ah, #+0x7
    1599:	10A4      	asr        #0x10
    159A:	0F94      	sdiv       #+0xF
    159B:	F925      	st         al, @0xFFF9 <(scratchpad)>
    159C:	E315      	ld         al, @0xFFE3 <register uxl>
    159D:	0A90      	smult      #+0xA
    159E:	E119      	ld         x, @0xFFE1 <register al>
    159F:	0D38      	add        x, #+0xD
    15A0:	E311      	ld         ah, @0xFFE3 <register uxl>
    15A1:	10A4      	asr        #0x10
    15A2:	1A94      	sdiv       #+0x1A
    15A3:	F100      	**prefx    0xF1
    15A4:	0619      	ld         x, @0xF106 <___libgatt_lib_db_2240>
    15A5:	F000      	**prefx    0xF0
    15A6:	00C8      	and        x, #0xF000
    15A7:	E1B9      	or         x, @0xFFE1 <register al>
    15A8:	06A0      	asl        #0x6
    15A9:	E1B9      	or         x, @0xFFE1 <register al>
    15AA:	F100      	**prefx    0xF1
    15AB:	0629      	st         x, @0xF106 <___libgatt_lib_db_2240>
    15AC:	3E00      	**prefx    0x3E
    15AD:	2419      	ld         x, @0x3E24 <patch_pending_mode+0x3>
    15AE:	F829      	st         x, @0xFFF8 <(scratchpad)>
    15AF:	0016      	ld         al, @(0x0, x)
    15B0:	F955      	sub        al, @0xFFF9 <(scratchpad)>
    15B1:	F000      	**prefx    0xF0
    15B2:	0025      	st         al, @0xF000 <PERSIST_MEM_END>
    15B3:	02A0      	asl        #0x2
    15B4:	E111      	ld         ah, @0xFFE1 <register al>
    15B5:	10A4      	asr        #0x10
    15B6:	2694      	sdiv       #+0x26
    15B7:	1334      	add        al, #+0x13
    15B8:	F700      	**prefx    0xF7
    15B9:	B025      	st         al, @0xF6B0 <___libgatt_lib_db_2014>
    15BA:	0316      	ld         al, @(+0x3, x)
    15BB:	04A0      	asl        #0x4
    15BC:	9C00      	**prefx    0x9C
    15BD:	8211      	ld         ah, @0x9B82 <DATA_RCLUTS_START+0x2>
    15BE:	8FC0      	and        ah, #0xFF8F
    15BF:	E0B5      	or         al, @0xFFE0 <register ah>
    15C0:	9C00      	**prefx    0x9C
    15C1:	8225      	st         al, @0x9B82 <DATA_RCLUTS_START+0x2>
    15C2:	0216      	ld         al, @(+0x2, x)
    15C3:	04A0      	asl        #0x4
    15C4:	9C00      	**prefx    0x9C
    15C5:	8111      	ld         ah, @0x9B81 <DATA_RCLUTS_START+0x1>
    15C6:	FF00      	**prefx    0xFF
    15C7:	0FC0      	and        ah, #0xFF0F
    15C8:	E0B5      	or         al, @0xFFE0 <register ah>
    15C9:	9C00      	**prefx    0x9C
    15CA:	8125      	st         al, @0x9B81 <DATA_RCLUTS_START+0x1>
    15CB:	F000      	**prefx    0xF0
    15CC:	0C15      	ld         al, @0xF00C <___libgatt_lib_db_1004>
    15CD:	F925      	st         al, @0xFFF9 <(scratchpad)>
    15CE:	0316      	ld         al, @(+0x3, x)
    15CF:	04A0      	asl        #0x4
    15D0:	F919      	ld         x, @0xFFF9 <(scratchpad)>
    15D1:	8FC8      	and        x, #0xFF8F
    15D2:	E3B5      	or         al, @0xFFE3 <register uxl>
    15D3:	F000      	**prefx    0xF0
    15D4:	0C25      	st         al, @0xF00C <___libgatt_lib_db_1004>
    15D5:	F000      	**prefx    0xF0
    15D6:	0B15      	ld         al, @0xF00B <___libgatt_lib_db_1387>
    15D7:	F925      	st         al, @0xFFF9 <(scratchpad)>
    15D8:	F819      	ld         x, @0xFFF8 <(scratchpad)>
    15D9:	0216      	ld         al, @(+0x2, x)
    15DA:	04A0      	asl        #0x4
    15DB:	F919      	ld         x, @0xFFF9 <(scratchpad)>
    15DC:	FF00      	**prefx    0xFF
    15DD:	0FC8      	and        x, #0xFF0F
    15DE:	E3B5      	or         al, @0xFFE3 <register uxl>
    15DF:	F000      	**prefx    0xF0
    15E0:	0B25      	st         al, @0xF00B <___libgatt_lib_db_1387>
    15E1:	F819      	ld         x, @0xFFF8 <(scratchpad)>
    15E2:	0116      	ld         al, @(+0x1, x)
    15E3:	F000      	**prefx    0xF0
    15E4:	0125      	st         al, @0xF001 <___libgatt_lib_db_1388>
    15E5:	010F      	leave      #+0x1

0x000015E6 <___libgatt_lib_db_4657>:
    15E6:	010B      	enter      #+0x1
    15E7:	0590      	smult      #+0x5
    15E8:	3E00      	**prefx    0x3E
    15E9:	8534      	add        al, #+0x3D85
    15EA:	3E00      	**prefx    0x3E
    15EB:	2425      	st         al, @0x3E24 <patch_pending_mode+0x3>
    15EC:	3E00      	**prefx    0x3E
    15ED:	2315      	ld         al, @0x3E23 <patch_pending_mode+0x2>
    15EE:	F900      	**prefx    0xF9
    15EF:	3B34      	add        al, #-0x6C5
    15F0:	FF27      	st         al, @(-0x1, y)
    15F1:	FF9F      	bsr        @(-0x1, y)
    15F2:	001B      	ld         x, @(0x0, y)
    15F3:	013C      	add        y, #+0x1
    15F4:	9BE0      	bra        -0x65 <.LFB10:0x158F[p]>

0x000015F5 <___libgatt_lib_db_4655>:
    15F5:	010B      	enter      #+0x1
    15F6:	3E00      	**prefx    0x3E
    15F7:	2499      	tst        @0x3E24 <patch_pending_mode+0x3>
    15F8:	04F0      	bne        +0x4 <___libgatt_lib_db_4655+0x7:0x15FC[p]>
    15F9:	A000      	**prefx    0xA0
    15FA:	9615      	ld         al, @0x9F96 <DATA_CSTORE_START+0x12>
    15FB:	EB9C      	bsr        -0x15 <___libgatt_lib_db_4657:0x15E6[p]>
    15FC:	2217      	ld         al, @(+0x22, y)
    15FD:	929C      	bsr        -0x6E <.LFB10:0x158F[p]>
    15FE:	010F      	leave      #+0x1

0x000015FF <___libgatt_lib_db_4205>:
    15FF:	1D00      	**prefx    0x1D
    1600:	D014      	ld         al, #+0x1CD0
    1601:	F200      	**prefx    0xF2
    1602:	2725      	st         al, @0xF227 <___libgatt_lib_db_1528>
    1603:	3C00      	**prefx    0x3C
    1604:	0A14      	ld         al, #+0x3C0A
    1605:	F200      	**prefx    0xF2
    1606:	2825      	st         al, @0xF228 <___libgatt_lib_db_1529>
    1607:	00E2      	bra        0x0, x

0x00001608 <ram_app_init>:
    1608:	020B      	enter      #+0x2
    1609:	0100      	**prefx    0x1
    160A:	9614      	ld         al, #+0x96
    160B:	0027      	st         al, @(0x0, y)
    160C:	3E00      	**prefx    0x3E
    160D:	CD14      	ld         al, #+0x3DCD
    160E:	0010      	ld         ah, #+0x0
    160F:	7700      	**prefx    0x77
    1610:	FD9C      	bsr        +0x76FD <MemSet:0x8D0D[p]>
    1611:	0800      	**prefx    0x8
    1612:	2714      	ld         al, #+0x827
    1613:	0100      	**prefx    0x1
    1614:	D100      	**prefx    0xD1
    1615:	749C      	bsr        +0xD174 <___libgatt_lib_db_4323:0xE789[p]>
    1616:	0900      	**prefx    0x9
    1617:	9A14      	ld         al, #+0x89A
    1618:	0100      	**prefx    0x1
    1619:	D100      	**prefx    0xD1
    161A:	729C      	bsr        +0xD172 <___libgatt_lib_db_4322:0xE78C[p]>
    161B:	0900      	**prefx    0x9
    161C:	8714      	ld         al, #+0x887
    161D:	0100      	**prefx    0x1
    161E:	D100      	**prefx    0xD1
    161F:	709C      	bsr        +0xD170 <___libgatt_lib_db_4324:0xE78F[p]>
    1620:	1600      	**prefx    0x16
    1621:	3914      	ld         al, #+0x1639
    1622:	0100      	**prefx    0x1
    1623:	D300      	**prefx    0xD3
    1624:	529C      	bsr        +0xD352 <___libgatt_lib_db_4366:0xE976[p]>
    1625:	0100      	**prefx    0x1
    1626:	E200      	**prefx    0xE2
    1627:	6C9C      	bsr        +0xE26C <IdGetRomBuild:0xF893[p]>
    1628:	0200      	**prefx    0x2
    1629:	FB84      	cmp        al, #+0x1FB
    162A:	05F4      	beq        +0x5 <UART_RATE_1382K4+0x10:0x162F[p]>
    162B:	1D14      	ld         al, #+0x1D
    162C:	0100      	**prefx    0x1
    162D:	D300      	**prefx    0xD3
    162E:	EC9C      	bsr        +0xD2EC <fault:0xE91A[p]>
    162F:	3E00      	**prefx    0x3E
    1630:	AD15      	ld         al, @0x3DAD <ram_build_identifier_integer>
    1631:	0100      	**prefx    0x1
    1632:	E200      	**prefx    0xE2
    1633:	5D9C      	bsr        +0xE25D <___libgatt_lib_db_4492:0xF890[p]>
    1634:	0A00      	**prefx    0xA
    1635:	0B14      	ld         al, #+0xA0B
    1636:	7F00      	**prefx    0x7F
    1637:	839C      	bsr        +0x7E83 <installAppProcessLmEvent:0x94BA[p]>
    1638:	020F      	leave      #+0x2

0x00001639 <___libgatt_lib_db_4364>:
    1639:	1114      	ld         al, #+0x11
    163A:	F700      	**prefx    0xF7
    163B:	F525      	st         al, @0xF6F5 <___libgatt_lib_db_1861>
    163C:	5100      	**prefx    0x51
    163D:	D714      	ld         al, #+0x50D7
    163E:	F600      	**prefx    0xF6
    163F:	3525      	st         al, @0xF635 <___libgatt_lib_db_1862>
    1640:	00E2      	bra        0x0, x

0x00001641 <NvmConfigureI2cEeprom>:
    1641:	010B      	enter      #+0x1
    1642:	0100      	**prefx    0x1
    1643:	DA00      	**prefx    0xDA
    1644:	809C      	bsr        +0xD980 <NvmConfigureI2cEeprom_A05:0xEFC4[p]>
    1645:	1700      	**prefx    0x17
    1646:	AC18      	ld         x, #+0x16AC
    1647:	9500      	**prefx    0x95
    1648:	FB29      	st         x, @0x94FB <storage_disable>
    1649:	1600      	**prefx    0x16
    164A:	4118      	ld         x, #+0x1641
    164B:	9500      	**prefx    0x95
    164C:	FC29      	st         x, @0x94FC <storage_enable>
    164D:	1700      	**prefx    0x17
    164E:	9618      	ld         x, #+0x1696
    164F:	9500      	**prefx    0x95
    1650:	F829      	st         x, @0x94F8 <storage_read>
    1651:	1600      	**prefx    0x16
    1652:	5A18      	ld         x, #+0x165A
    1653:	9500      	**prefx    0x95
    1654:	F929      	st         x, @0x94F9 <storage_write>
    1655:	1600      	**prefx    0x16
    1656:	7018      	ld         x, #+0x1670
    1657:	9500      	**prefx    0x95
    1658:	FA29      	st         x, @0x94FA <storage_erase>
    1659:	010F      	leave      #+0x1

0x0000165A <.LFB5>:
    165A:	040B      	enter      #+0x4
    165B:	F925      	st         al, @0xFFF9 <(scratchpad)>
    165C:	F821      	st         ah, @0xFFF8 <(scratchpad)>
    165D:	0417      	ld         al, @(+0x4, y)
    165E:	01A0      	asl        #0x1
    165F:	E119      	ld         x, @0xFFE1 <register al>
    1660:	A000      	**prefx    0xA0
    1661:	B839      	add        x, @0x9FB8 <DATA_CSTORE_START+0x34>
    1662:	0114      	ld         al, #+0x1
    1663:	0027      	st         al, @(0x0, y)
    1664:	F815      	ld         al, @0xFFF8 <(scratchpad)>
    1665:	01A0      	asl        #0x1
    1666:	0127      	st         al, @(+0x1, y)
    1667:	F915      	ld         al, @0xFFF9 <(scratchpad)>
    1668:	0227      	st         al, @(+0x2, y)
    1669:	3F00      	**prefx    0x3F
    166A:	2A15      	ld         al, @0x3F2A <___libgatt_lib_db_4628+0x1>
    166B:	E311      	ld         ah, @0xFFE3 <register uxl>
    166C:	0100      	**prefx    0x1
    166D:	D500      	**prefx    0xD5
    166E:	BC9C      	bsr        +0xD4BC <I2cEepromWrite:0xEB2A[p]>
    166F:	040F      	leave      #+0x4

0x00001670 <.LFB7>:
    1670:	050B      	enter      #+0x5
    1671:	A000      	**prefx    0xA0
    1672:	B915      	ld         al, @0x9FB9 <DATA_CSTORE_START+0x35>
    1673:	0327      	st         al, @(+0x3, y)
    1674:	1018      	ld         x, #+0x10
    1675:	002B      	st         x, @(0x0, y)
    1676:	3E00      	**prefx    0x3E
    1677:	2514      	ld         al, #+0x3E25
    1678:	FF10      	ld         ah, #-0x1
    1679:	7700      	**prefx    0x77
    167A:	939C      	bsr        +0x7693 <MemSet:0x8D0D[p]>
    167B:	0014      	ld         al, #+0x0
    167C:	1018      	ld         x, #+0x10
    167D:	022B      	st         x, @(+0x2, y)
    167E:	0127      	st         al, @(+0x1, y)
    167F:	12E0      	bra        +0x12 <.LFB7+0x21:0x1691[p]>
    1680:	0217      	ld         al, @(+0x2, y)
    1681:	0387      	cmp        al, @(+0x3, y)
    1682:	032C      	bcz        +0x3 <.LFB7+0x15:0x1685[p]>
    1683:	031B      	ld         x, @(+0x3, y)
    1684:	022B      	st         x, @(+0x2, y)
    1685:	0117      	ld         al, @(+0x1, y)
    1686:	0027      	st         al, @(0x0, y)
    1687:	3E00      	**prefx    0x3E
    1688:	2514      	ld         al, #+0x3E25
    1689:	0213      	ld         ah, @(+0x2, y)
    168A:	D09C      	bsr        -0x30 <.LFB5:0x165A[p]>
    168B:	031B      	ld         x, @(+0x3, y)
    168C:	025B      	sub        x, @(+0x2, y)
    168D:	032B      	st         x, @(+0x3, y)
    168E:	011B      	ld         x, @(+0x1, y)
    168F:	023B      	add        x, @(+0x2, y)
    1690:	012B      	st         x, @(+0x1, y)
    1691:	039B      	tst        @(+0x3, y)
    1692:	03F4      	beq        +0x3 <.LFB7+0x25:0x1695[p]>
    1693:	E199      	tst        @0xFFE1 <register al>
    1694:	ECF4      	beq        -0x14 <.LFB7+0x10:0x1680[p]>
    1695:	050F      	leave      #+0x5

0x00001696 <.LFB6>:
    1696:	040B      	enter      #+0x4
    1697:	F925      	st         al, @0xFFF9 <(scratchpad)>
    1698:	F821      	st         ah, @0xFFF8 <(scratchpad)>
    1699:	0417      	ld         al, @(+0x4, y)
    169A:	01A0      	asl        #0x1
    169B:	E119      	ld         x, @0xFFE1 <register al>
    169C:	A000      	**prefx    0xA0
    169D:	B839      	add        x, @0x9FB8 <DATA_CSTORE_START+0x34>
    169E:	0114      	ld         al, #+0x1
    169F:	0027      	st         al, @(0x0, y)
    16A0:	F815      	ld         al, @0xFFF8 <(scratchpad)>
    16A1:	01A0      	asl        #0x1
    16A2:	0127      	st         al, @(+0x1, y)
    16A3:	F915      	ld         al, @0xFFF9 <(scratchpad)>
    16A4:	0227      	st         al, @(+0x2, y)
    16A5:	3F00      	**prefx    0x3F
    16A6:	2A15      	ld         al, @0x3F2A <___libgatt_lib_db_4628+0x1>
    16A7:	E311      	ld         ah, @0xFFE3 <register uxl>
    16A8:	0100      	**prefx    0x1
    16A9:	D400      	**prefx    0xD4
    16AA:	2C9C      	bsr        +0xD42C <I2cEepromRead:0xEAD6[p]>
    16AB:	040F      	leave      #+0x4

0x000016AC <.LFB4>:
    16AC:	010B      	enter      #+0x1
    16AD:	0014      	ld         al, #+0x0
    16AE:	0100      	**prefx    0x1
    16AF:	D300      	**prefx    0xD3
    16B0:	4A9C      	bsr        +0xD34A <I2cEnable:0xE9FA[p]>
    16B1:	A000      	**prefx    0xA0
    16B2:	C315      	ld         al, @0x9FC3 <DATA_CSTORE_START+0x3F>
    16B3:	0100      	**prefx    0x1
    16B4:	E100      	**prefx    0xE1
    16B5:	5E9C      	bsr        +0xE15E <PioSetI2CPullMode:0xF813[p]>
    16B6:	010F      	leave      #+0x1

0x000016B7 <PioConfigPWM>:
    16B7:	0B0B      	enter      #+0xB
    16B8:	0827      	st         al, @(+0x8, y)
    16B9:	0923      	st         ah, @(+0x9, y)
    16BA:	F700      	**prefx    0xF7
    16BB:	E415      	ld         al, @0xF6E4 <___libgatt_lib_db_2963>
    16BC:	0727      	st         al, @(+0x7, y)
    16BD:	0B17      	ld         al, @(+0xB, y)
    16BE:	0027      	st         al, @(0x0, y)
    16BF:	0C17      	ld         al, @(+0xC, y)
    16C0:	0127      	st         al, @(+0x1, y)
    16C1:	0D17      	ld         al, @(+0xD, y)
    16C2:	0227      	st         al, @(+0x2, y)
    16C3:	0E17      	ld         al, @(+0xE, y)
    16C4:	0327      	st         al, @(+0x3, y)
    16C5:	0F17      	ld         al, @(+0xF, y)
    16C6:	0427      	st         al, @(+0x4, y)
    16C7:	1017      	ld         al, @(+0x10, y)
    16C8:	0527      	st         al, @(+0x5, y)
    16C9:	1117      	ld         al, @(+0x11, y)
    16CA:	0627      	st         al, @(+0x6, y)
    16CB:	0817      	ld         al, @(+0x8, y)
    16CC:	0100      	**prefx    0x1
    16CD:	E000      	**prefx    0xE0
    16CE:	BD9C      	bsr        +0xDFBD <PioConfigPWM_A05:0xF68B[p]>
    16CF:	E199      	tst        @0xFFE1 <register al>
    16D0:	11F4      	beq        +0x11 <PioConfigPWM+0x2A:0x16E1[p]>
    16D1:	0817      	ld         al, @(+0x8, y)
    16D2:	01A0      	asl        #0x1
    16D3:	E119      	ld         x, @0xFFE1 <register al>
    16D4:	0314      	ld         al, #+0x3
    16D5:	E3A1      	asl        @0xFFE3 <register uxl>
    16D6:	FFD4      	xor        al, #0xFFFF
    16D7:	F825      	st         al, @0xFFF8 <(scratchpad)>
    16D8:	0717      	ld         al, @(+0x7, y)
    16D9:	F8C5      	and        al, @0xFFF8 <(scratchpad)>
    16DA:	F825      	st         al, @0xFFF8 <(scratchpad)>
    16DB:	0917      	ld         al, @(+0x9, y)
    16DC:	E3A1      	asl        @0xFFE3 <register uxl>
    16DD:	F8B5      	or         al, @0xFFF8 <(scratchpad)>
    16DE:	F700      	**prefx    0xF7
    16DF:	E425      	st         al, @0xF6E4 <___libgatt_lib_db_2963>
    16E0:	0114      	ld         al, #+0x1
    16E1:	0B0F      	leave      #+0xB

0x000016E2 <PioSetMode>:
    16E2:	0880      	cmp        ah, #+0x8
    16E3:	04F4      	beq        +0x4 <PioSetMode+0x5:0x16E7[p]>
    16E4:	0980      	cmp        ah, #+0x9
    16E5:	05F0      	bne        +0x5 <PioSetMode+0x8:0x16EA[p]>
    16E6:	03E0      	bra        +0x3 <PioSetMode+0x7:0x16E9[p]>
    16E7:	0910      	ld         ah, #+0x9
    16E8:	02E0      	bra        +0x2 <PioSetMode+0x8:0x16EA[p]>
    16E9:	0B10      	ld         ah, #+0xB
    16EA:	0100      	**prefx    0x1
    16EB:	DF00      	**prefx    0xDF
    16EC:	61E0      	bra        +0xDF61 <PioSetMode_A05:0xF64D[p]>

0x000016ED <IdGetLlVerBtle>:
    16ED:	A000      	**prefx    0xA0
    16EE:	CE15      	ld         al, @0x9FCE <DATA_CSTORE_START+0x4A>
    16EF:	00E2      	bra        0x0, x

0x000016F0 <___libgatt_lib_db_4214>:
    16F0:	070B      	enter      #+0x7
    16F1:	F900      	**prefx    0xF9
    16F2:	4211      	ld         ah, @0xF942 <___libgatt_lib_db_2749>
    16F3:	0323      	st         ah, @(+0x3, y)
    16F4:	1300      	**prefx    0x13
    16F5:	7B14      	ld         al, #+0x137B
    16F6:	F900      	**prefx    0xF9
    16F7:	4225      	st         al, @0xF942 <___libgatt_lib_db_2749>
    16F8:	FA00      	**prefx    0xFA
    16F9:	9215      	ld         al, @0xF992 <___libgatt_lib_db_738>
    16FA:	01B4      	or         al, #+0x1
    16FB:	FA00      	**prefx    0xFA
    16FC:	9225      	st         al, @0xF992 <___libgatt_lib_db_738>
    16FD:	3E00      	**prefx    0x3E
    16FE:	3611      	ld         ah, @0x3E36 <enable_lo_offset_adc_update+0x1>
    16FF:	FB00      	**prefx    0xFB
    1700:	5330      	add        ah, #-0x4AD
    1701:	0214      	ld         al, #+0x2
    1702:	FF23      	st         ah, @(-0x1, y)
    1703:	FF9F      	bsr        @(-0x1, y)
    1704:	0010      	ld         ah, #+0x0
    1705:	0523      	st         ah, @(+0x5, y)
    1706:	0423      	st         ah, @(+0x4, y)
    1707:	3E00      	**prefx    0x3E
    1708:	3611      	ld         ah, @0x3E36 <enable_lo_offset_adc_update+0x1>
    1709:	FB00      	**prefx    0xFB
    170A:	5A30      	add        ah, #-0x4A6
    170B:	0214      	ld         al, #+0x2
    170C:	FF23      	st         ah, @(-0x1, y)
    170D:	FF9F      	bsr        @(-0x1, y)
    170E:	0537      	add        al, @(+0x5, y)
    170F:	0527      	st         al, @(+0x5, y)
    1710:	0413      	ld         ah, @(+0x4, y)
    1711:	0130      	add        ah, #+0x1
    1712:	0423      	st         ah, @(+0x4, y)
    1713:	0480      	cmp        ah, #+0x4
    1714:	F3F0      	bne        -0xD <___libgatt_lib_db_4214+0x17:0x1707[p]>
    1715:	FA00      	**prefx    0xFA
    1716:	9215      	ld         al, @0xF992 <___libgatt_lib_db_738>
    1717:	FEC4      	and        al, #0xFFFE
    1718:	FA00      	**prefx    0xFA
    1719:	9225      	st         al, @0xF992 <___libgatt_lib_db_738>
    171A:	3E00      	**prefx    0x3E
    171B:	3615      	ld         al, @0x3E36 <enable_lo_offset_adc_update+0x1>
    171C:	FB00      	**prefx    0xFB
    171D:	9734      	add        al, #-0x569
    171E:	FF27      	st         al, @(-0x1, y)
    171F:	FF9F      	bsr        @(-0x1, y)
    1720:	0313      	ld         ah, @(+0x3, y)
    1721:	F900      	**prefx    0xF9
    1722:	4221      	st         ah, @0xF942 <___libgatt_lib_db_2749>
    1723:	A000      	**prefx    0xA0
    1724:	BE15      	ld         al, @0x9FBE <DATA_CSTORE_START+0x3A>
    1725:	9400      	**prefx    0x94
    1726:	4525      	st         al, @0x9445 <build_identifier_integer+0x1>
    1727:	F984      	cmp        al, #-0x7
    1728:	0524      	bge        +0x5 <___libgatt_lib_db_4214+0x3D:0x172D[p]>
    1729:	F914      	ld         al, #-0x7
    172A:	9400      	**prefx    0x94
    172B:	4525      	st         al, @0x9445 <build_identifier_integer+0x1>
    172C:	06E0      	bra        +0x6 <___libgatt_lib_db_4214+0x42:0x1732[p]>
    172D:	0784      	cmp        al, #+0x7
    172E:	0428      	ble        +0x4 <___libgatt_lib_db_4214+0x42:0x1732[p]>
    172F:	0718      	ld         x, #+0x7
    1730:	9400      	**prefx    0x94
    1731:	4529      	st         x, @0x9445 <build_identifier_integer+0x1>
    1732:	9400      	**prefx    0x94
    1733:	4511      	ld         ah, @0x9445 <build_identifier_integer+0x1>
    1734:	0223      	st         ah, @(+0x2, y)
    1735:	0F17      	ld         al, @(+0xF, y)
    1736:	FF27      	st         al, @(-0x1, y)
    1737:	0F1B      	ld         x, @(+0xF, y)
    1738:	0513      	ld         ah, @(+0x5, y)
    1739:	0009      	**unsigned
    173A:	02A4      	lsr        #0x2
    173B:	E015      	ld         al, @0xFFE0 <register ah>
    173C:	0009      	**unsigned
    173D:	0200      	**prefx    0x2
    173E:	BE90      	umult      #0x1BE
    173F:	FB25      	st         al, @0xFFFB <(scratchpad)>
    1740:	FA21      	st         ah, @0xFFFA <(scratchpad)>
    1741:	E311      	ld         ah, @0xFFE3 <register uxl>
    1742:	0009      	**unsigned
    1743:	01A4      	lsr        #0x1
    1744:	F921      	st         ah, @0xFFF9 <(scratchpad)>
    1745:	0018      	ld         x, #+0x0
    1746:	F829      	st         x, @0xFFF8 <(scratchpad)>
    1747:	FB15      	ld         al, @0xFFFB <(scratchpad)>
    1748:	FA11      	ld         ah, @0xFFFA <(scratchpad)>
    1749:	F935      	add        al, @0xFFF9 <(scratchpad)>
    174A:	F841      	addc       ah, @0xFFF8 <(scratchpad)>
    174B:	0127      	st         al, @(+0x1, y)
    174C:	0023      	st         ah, @(0x0, y)
    174D:	0014      	ld         al, #+0x0
    174E:	FF13      	ld         ah, @(-0x1, y)
    174F:	7600      	**prefx    0x76
    1750:	229C      	bsr        +0x7622 <___libgatt_lib_db_3943:0x8D72[p]>
    1751:	0213      	ld         ah, @(+0x2, y)
    1752:	0200      	**prefx    0x2
    1753:	F030      	add        ah, #+0x1F0
    1754:	E151      	sub        ah, @0xFFE1 <register al>
    1755:	9400      	**prefx    0x94
    1756:	4521      	st         ah, @0x9445 <build_identifier_integer+0x1>
    1757:	D880      	cmp        ah, #-0x28
    1758:	0524      	bge        +0x5 <___libgatt_lib_db_4214+0x6D:0x175D[p]>
    1759:	D810      	ld         ah, #-0x28
    175A:	9400      	**prefx    0x94
    175B:	4521      	st         ah, @0x9445 <build_identifier_integer+0x1>
    175C:	06E0      	bra        +0x6 <___libgatt_lib_db_4214+0x72:0x1762[p]>
    175D:	6E80      	cmp        ah, #+0x6E
    175E:	0428      	ble        +0x4 <___libgatt_lib_db_4214+0x72:0x1762[p]>
    175F:	6E14      	ld         al, #+0x6E
    1760:	9400      	**prefx    0x94
    1761:	4525      	st         al, @0x9445 <build_identifier_integer+0x1>
    1762:	3F00      	**prefx    0x3F
    1763:	2B15      	ld         al, @0x3F2B <___libgatt_lib_db_4628+0x2>
    1764:	9C84      	cmp        al, #-0x64
    1765:	05F0      	bne        +0x5 <___libgatt_lib_db_4214+0x7A:0x176A[p]>
    1766:	9400      	**prefx    0x94
    1767:	4519      	ld         x, @0x9445 <build_identifier_integer+0x1>
    1768:	3F00      	**prefx    0x3F
    1769:	2B29      	st         x, @0x3F2B <___libgatt_lib_db_4628+0x2>
    176A:	F000      	**prefx    0xF0
    176B:	3515      	ld         al, @0xF035 <___libgatt_lib_db_1169>
    176C:	02C4      	and        al, #0x2
    176D:	2FF0      	bne        +0x2F <___libgatt_lib_db_4214+0xAC:0x179C[p]>
    176E:	9400      	**prefx    0x94
    176F:	4519      	ld         x, @0x9445 <build_identifier_integer+0x1>
    1770:	3F00      	**prefx    0x3F
    1771:	2B11      	ld         ah, @0x3F2B <___libgatt_lib_db_4628+0x2>
    1772:	E015      	ld         al, @0xFFE0 <register ah>
    1773:	FD34      	add        al, #-0x3
    1774:	E189      	cmp        x, @0xFFE1 <register al>
    1775:	04E4      	blt        +0x4 <___libgatt_lib_db_4214+0x89:0x1779[p]>
    1776:	0330      	add        ah, #+0x3
    1777:	E089      	cmp        x, @0xFFE0 <register ah>
    1778:	2428      	ble        +0x24 <___libgatt_lib_db_4214+0xAC:0x179C[p]>
    1779:	0100      	**prefx    0x1
    177A:	6810      	ld         ah, #+0x168
    177B:	F700      	**prefx    0xF7
    177C:	8921      	st         ah, @0xF689 <___libgatt_lib_db_1907>
    177D:	0300      	**prefx    0x3
    177E:	B014      	ld         al, #+0x2B0
    177F:	F700      	**prefx    0xF7
    1780:	8A25      	st         al, @0xF68A <___libgatt_lib_db_1906>
    1781:	F000      	**prefx    0xF0
    1782:	2A15      	ld         al, @0xF02A <___libgatt_lib_db_918>
    1783:	FF00      	**prefx    0xFF
    1784:	00C4      	and        al, #0xFF00
    1785:	0100      	**prefx    0x1
    1786:	BFB4      	or         al, #+0xBF
    1787:	F000      	**prefx    0xF0
    1788:	2A25      	st         al, @0xF02A <___libgatt_lib_db_918>
    1789:	9400      	**prefx    0x94
    178A:	4511      	ld         ah, @0x9445 <build_identifier_integer+0x1>
    178B:	3F00      	**prefx    0x3F
    178C:	2B21      	st         ah, @0x3F2B <___libgatt_lib_db_4628+0x2>
    178D:	0118      	ld         x, #+0x1
    178E:	3E00      	**prefx    0x3E
    178F:	3529      	st         x, @0x3E35 <enable_lo_offset_adc_update>
    1790:	E230      	add        ah, #-0x1E
    1791:	10A4      	asr        #0x10
    1792:	0394      	sdiv       #+0x3
    1793:	C084      	cmp        al, #-0x40
    1794:	0224      	bge        +0x2 <___libgatt_lib_db_4214+0xA6:0x1796[p]>
    1795:	C014      	ld         al, #-0x40
    1796:	3F84      	cmp        al, #+0x3F
    1797:	0228      	ble        +0x2 <___libgatt_lib_db_4214+0xA9:0x1799[p]>
    1798:	3F14      	ld         al, #+0x3F
    1799:	F700      	**prefx    0xF7
    179A:	8D25      	st         al, @0xF68D <___libgatt_lib_db_1875>
    179B:	11E0      	bra        +0x11 <___libgatt_lib_db_4214+0xBC:0x17AC[p]>
    179C:	F000      	**prefx    0xF0
    179D:	2A15      	ld         al, @0xF02A <___libgatt_lib_db_918>
    179E:	FF00      	**prefx    0xFF
    179F:	00C4      	and        al, #0xFF00
    17A0:	37B4      	or         al, #+0x37
    17A1:	F000      	**prefx    0xF0
    17A2:	2A25      	st         al, @0xF02A <___libgatt_lib_db_918>
    17A3:	0010      	ld         ah, #+0x0
    17A4:	3E00      	**prefx    0x3E
    17A5:	3521      	st         ah, @0x3E35 <enable_lo_offset_adc_update>
    17A6:	F700      	**prefx    0xF7
    17A7:	8921      	st         ah, @0xF689 <___libgatt_lib_db_1907>
    17A8:	0400      	**prefx    0x4
    17A9:	FF14      	ld         al, #+0x3FF
    17AA:	F700      	**prefx    0xF7
    17AB:	8A25      	st         al, @0xF68A <___libgatt_lib_db_1906>
    17AC:	9400      	**prefx    0x94
    17AD:	4515      	ld         al, @0x9445 <build_identifier_integer+0x1>
    17AE:	3284      	cmp        al, #+0x32
    17AF:	1A28      	ble        +0x1A <___libgatt_lib_db_4214+0xD9:0x17C9[p]>
    17B0:	F600      	**prefx    0xF6
    17B1:	3D15      	ld         al, @0xF63D <___libgatt_lib_db_1819>
    17B2:	17EC      	bmi        +0x17 <___libgatt_lib_db_4214+0xD9:0x17C9[p]>
    17B3:	9C00      	**prefx    0x9C
    17B4:	9919      	ld         x, @0x9B99 <DATA_RCLUTS_START+0x19>
    17B5:	FE00      	**prefx    0xFE
    17B6:	FFC8      	and        x, #0xFDFF
    17B7:	9C00      	**prefx    0x9C
    17B8:	9929      	st         x, @0x9B99 <DATA_RCLUTS_START+0x19>
    17B9:	FF00      	**prefx    0xFF
    17BA:	4B10      	ld         ah, #-0xB5
    17BB:	F600      	**prefx    0xF6
    17BC:	5021      	st         ah, @0xF650 <___libgatt_lib_db_1806>
    17BD:	F600      	**prefx    0xF6
    17BE:	3D15      	ld         al, @0xF63D <___libgatt_lib_db_1819>
    17BF:	8000      	**prefx    0x80
    17C0:	00B4      	or         al, #-0x8000
    17C1:	F600      	**prefx    0xF6
    17C2:	3D25      	st         al, @0xF63D <___libgatt_lib_db_1819>
    17C3:	F600      	**prefx    0xF6
    17C4:	3E15      	ld         al, @0xF63E <___libgatt_lib_db_1820>
    17C5:	8000      	**prefx    0x80
    17C6:	00B4      	or         al, #-0x8000
    17C7:	F600      	**prefx    0xF6
    17C8:	3E25      	st         al, @0xF63E <___libgatt_lib_db_1820>
    17C9:	9400      	**prefx    0x94
    17CA:	4515      	ld         al, @0x9445 <build_identifier_integer+0x1>
    17CB:	2C84      	cmp        al, #+0x2C
    17CC:	1620      	bgt        +0x16 <___libgatt_lib_db_4214+0xF2:0x17E2[p]>
    17CD:	F600      	**prefx    0xF6
    17CE:	3D15      	ld         al, @0xF63D <___libgatt_lib_db_1819>
    17CF:	13E8      	bpl        +0x13 <___libgatt_lib_db_4214+0xF2:0x17E2[p]>
    17D0:	F600      	**prefx    0xF6
    17D1:	3D15      	ld         al, @0xF63D <___libgatt_lib_db_1819>
    17D2:	8000      	**prefx    0x80
    17D3:	FFC4      	and        al, #0x7FFF
    17D4:	F600      	**prefx    0xF6
    17D5:	3D25      	st         al, @0xF63D <___libgatt_lib_db_1819>
    17D6:	F600      	**prefx    0xF6
    17D7:	3E15      	ld         al, @0xF63E <___libgatt_lib_db_1820>
    17D8:	8000      	**prefx    0x80
    17D9:	FFC4      	and        al, #0x7FFF
    17DA:	F600      	**prefx    0xF6
    17DB:	3E25      	st         al, @0xF63E <___libgatt_lib_db_1820>
    17DC:	9C00      	**prefx    0x9C
    17DD:	9915      	ld         al, @0x9B99 <DATA_RCLUTS_START+0x19>
    17DE:	0200      	**prefx    0x2
    17DF:	00B4      	or         al, #+0x200
    17E0:	9C00      	**prefx    0x9C
    17E1:	9925      	st         al, @0x9B99 <DATA_RCLUTS_START+0x19>
    17E2:	9400      	**prefx    0x94
    17E3:	4515      	ld         al, @0x9445 <build_identifier_integer+0x1>
    17E4:	3F00      	**prefx    0x3F
    17E5:	2C55      	sub        al, @0x3F2C <___libgatt_lib_db_4628+0x3>
    17E6:	E199      	tst        @0xFFE1 <register al>
    17E7:	02E8      	bpl        +0x2 <___libgatt_lib_db_4214+0xF9:0x17E9[p]>
    17E8:	0074      	nadd       al, #+0x0
    17E9:	0584      	cmp        al, #+0x5
    17EA:	572C      	bcz        +0x57 <___libgatt_lib_db_4214+0x151:0x1841[p]>
    17EB:	9400      	**prefx    0x94
    17EC:	4519      	ld         x, @0x9445 <build_identifier_integer+0x1>
    17ED:	FA29      	st         x, @0xFFFA <(scratchpad)>
    17EE:	3F00      	**prefx    0x3F
    17EF:	2C29      	st         x, @0x3F2C <___libgatt_lib_db_4628+0x3>
    17F0:	A000      	**prefx    0xA0
    17F1:	8811      	ld         ah, @0x9F88 <DATA_CSTORE_START+0x4>
    17F2:	FB21      	st         ah, @0xFFFB <(scratchpad)>
    17F3:	A000      	**prefx    0xA0
    17F4:	C415      	ld         al, @0x9FC4 <DATA_CSTORE_START+0x40>
    17F5:	04F0      	bne        +0x4 <___libgatt_lib_db_4214+0x109:0x17F9[p]>
    17F6:	A000      	**prefx    0xA0
    17F7:	C599      	tst        @0x9FC5 <DATA_CSTORE_START+0x41>
    17F8:	42F4      	beq        +0x42 <___libgatt_lib_db_4214+0x14A:0x183A[p]>
    17F9:	FA19      	ld         x, @0xFFFA <(scratchpad)>
    17FA:	E189      	cmp        x, @0xFFE1 <register al>
    17FB:	0424      	bge        +0x4 <___libgatt_lib_db_4214+0x10F:0x17FF[p]>
    17FC:	A000      	**prefx    0xA0
    17FD:	C515      	ld         al, @0x9FC5 <DATA_CSTORE_START+0x41>
    17FE:	34E0      	bra        +0x34 <___libgatt_lib_db_4214+0x142:0x1832[p]>
    17FF:	0010      	ld         ah, #+0x0
    1800:	F821      	st         ah, @0xFFF8 <(scratchpad)>
    1801:	F815      	ld         al, @0xFFF8 <(scratchpad)>
    1802:	2034      	add        al, #+0x20
    1803:	01A0      	asl        #0x1
    1804:	A000      	**prefx    0xA0
    1805:	8434      	add        al, #-0x607C
    1806:	F925      	st         al, @0xFFF9 <(scratchpad)>
    1807:	F815      	ld         al, @0xFFF8 <(scratchpad)>
    1808:	01A0      	asl        #0x1
    1809:	E119      	ld         x, @0xFFE1 <register al>
    180A:	FA11      	ld         ah, @0xFFFA <(scratchpad)>
    180B:	A000      	**prefx    0xA0
    180C:	C482      	cmp        ah, @(-0x603C, x)
    180D:	04E4      	blt        +0x4 <___libgatt_lib_db_4214+0x121:0x1811[p]>
    180E:	A000      	**prefx    0xA0
    180F:	C682      	cmp        ah, @(-0x603A, x)
    1810:	0EE4      	blt        +0xE <___libgatt_lib_db_4214+0x12E:0x181E[p]>
    1811:	F815      	ld         al, @0xFFF8 <(scratchpad)>
    1812:	0134      	add        al, #+0x1
    1813:	F825      	st         al, @0xFFF8 <(scratchpad)>
    1814:	2034      	add        al, #+0x20
    1815:	01A0      	asl        #0x1
    1816:	E119      	ld         x, @0xFFE1 <register al>
    1817:	A000      	**prefx    0xA0
    1818:	8438      	add        x, #-0x607C
    1819:	F811      	ld         ah, @0xFFF8 <(scratchpad)>
    181A:	0580      	cmp        ah, #+0x5
    181B:	E6F0      	bne        -0x1A <___libgatt_lib_db_4214+0x111:0x1801[p]>
    181C:	FF16      	ld         al, @(-0x1, x)
    181D:	15E0      	bra        +0x15 <___libgatt_lib_db_4214+0x142:0x1832[p]>
    181E:	F919      	ld         x, @0xFFF9 <(scratchpad)>
    181F:	001A      	ld         x, @(0x0, x)
    1820:	FF2B      	st         x, @(-0x1, y)
    1821:	F919      	ld         x, @0xFFF9 <(scratchpad)>
    1822:	011A      	ld         x, @(+0x1, x)
    1823:	F829      	st         x, @0xFFF8 <(scratchpad)>
    1824:	FA11      	ld         ah, @0xFFFA <(scratchpad)>
    1825:	FF53      	sub        ah, @(-0x1, y)
    1826:	FA21      	st         ah, @0xFFFA <(scratchpad)>
    1827:	F919      	ld         x, @0xFFF9 <(scratchpad)>
    1828:	0316      	ld         al, @(+0x3, x)
    1829:	F855      	sub        al, @0xFFF8 <(scratchpad)>
    182A:	FA91      	smult      @0xFFFA <(scratchpad)>
    182B:	0212      	ld         ah, @(+0x2, x)
    182C:	FF53      	sub        ah, @(-0x1, y)
    182D:	F921      	st         ah, @0xFFF9 <(scratchpad)>
    182E:	E111      	ld         ah, @0xFFE1 <register al>
    182F:	10A4      	asr        #0x10
    1830:	F995      	sdiv       @0xFFF9 <(scratchpad)>
    1831:	F835      	add        al, @0xFFF8 <(scratchpad)>
    1832:	FB35      	add        al, @0xFFFB <(scratchpad)>
    1833:	3F84      	cmp        al, #+0x3F
    1834:	0228      	ble        +0x2 <___libgatt_lib_db_4214+0x146:0x1836[p]>
    1835:	3F14      	ld         al, #+0x3F
    1836:	FB25      	st         al, @0xFFFB <(scratchpad)>
    1837:	03E8      	bpl        +0x3 <___libgatt_lib_db_4214+0x14A:0x183A[p]>
    1838:	0014      	ld         al, #+0x0
    1839:	FB25      	st         al, @0xFFFB <(scratchpad)>
    183A:	3E00      	**prefx    0x3E
    183B:	3611      	ld         ah, @0x3E36 <enable_lo_offset_adc_update+0x1>
    183C:	F900      	**prefx    0xF9
    183D:	9630      	add        ah, #-0x76A
    183E:	FB15      	ld         al, @0xFFFB <(scratchpad)>
    183F:	FF23      	st         ah, @(-0x1, y)
    1840:	FF9F      	bsr        @(-0x1, y)
    1841:	1017      	ld         al, @(+0x10, y)
    1842:	F500      	**prefx    0xF5
    1843:	A384      	cmp        al, #-0xB5D
    1844:	06F0      	bne        +0x6 <___libgatt_lib_db_4214+0x15A:0x184A[p]>
    1845:	0400      	**prefx    0x4
    1846:	E39C      	bsr        +0x3E3 <___libgatt_lib_db_4694:0x1C29[p]>
    1847:	F500      	**prefx    0xF5
    1848:	A510      	ld         ah, #-0xB5B
    1849:	1023      	st         ah, @(+0x10, y)
    184A:	110F      	leave      #+0x11
    184B:	070F      	leave      #+0x7

0x0000184C <___libgatt_lib_db_4554>:
    184C:	1800      	**prefx    0x18
    184D:	5314      	ld         al, #+0x1853
    184E:	1900      	**prefx    0x19
    184F:	A510      	ld         ah, #+0x18A5
    1850:	0100      	**prefx    0x1
    1851:	9E00      	**prefx    0x9E
    1852:	88E0      	bra        +0x9D88 <___libgatt_lib_db_3959:0xB5DA[p]>

0x00001853 <.LFB6>:
    1853:	030B      	enter      #+0x3
    1854:	0027      	st         al, @(0x0, y)
    1855:	0123      	st         ah, @(+0x1, y)
    1856:	3E84      	cmp        al, #+0x3E
    1857:	1DF4      	beq        +0x1D <.LFB6+0x21:0x1874[p]>
    1858:	3F84      	cmp        al, #+0x3F
    1859:	04F8      	bcc        +0x4 <.LFB6+0xA:0x185D[p]>
    185A:	0584      	cmp        al, #+0x5
    185B:	23F0      	bne        +0x23 <.LFB6+0x2B:0x187E[p]>
    185C:	1BE0      	bra        +0x1B <.LFB6+0x24:0x1877[p]>
    185D:	0017      	ld         al, @(0x0, y)
    185E:	4284      	cmp        al, #+0x42
    185F:	05F4      	beq        +0x5 <.LFB6+0x11:0x1864[p]>
    1860:	0B00      	**prefx    0xB
    1861:	B684      	cmp        al, #+0xAB6
    1862:	1CF0      	bne        +0x1C <.LFB6+0x2B:0x187E[p]>
    1863:	07E0      	bra        +0x7 <.LFB6+0x17:0x186A[p]>
    1864:	011B      	ld         x, @(+0x1, y)
    1865:	0138      	add        x, #+0x1
    1866:	E315      	ld         al, @0xFFE3 <register uxl>
    1867:	EB00      	**prefx    0xEB
    1868:	829C      	bsr        -0x157E <___libgatt_lib_db_4590:0x2EA[p]>
    1869:	09E0      	bra        +0x9 <.LFB6+0x1F:0x1872[p]>
    186A:	011B      	ld         x, @(+0x1, y)
    186B:	0116      	ld         al, @(+0x1, x)
    186C:	7A00      	**prefx    0x7A
    186D:	CA9C      	bsr        +0x79CA <___libgatt_lib_db_40:0x9237[p]>
    186E:	011B      	ld         x, @(+0x1, y)
    186F:	0126      	st         al, @(+0x1, x)
    1870:	FF84      	cmp        al, #-0x1
    1871:	0DF0      	bne        +0xD <.LFB6+0x2B:0x187E[p]>
    1872:	0114      	ld         al, #+0x1
    1873:	0FE0      	bra        +0xF <.LFB6+0x2F:0x1882[p]>
    1874:	F500      	**prefx    0xF5
    1875:	B09C      	bsr        -0xB50 <___libgatt_lib_db_4563:0xD25[p]>
    1876:	08E0      	bra        +0x8 <.LFB6+0x2B:0x187E[p]>
    1877:	0014      	ld         al, #+0x0
    1878:	3E00      	**prefx    0x3E
    1879:	2025      	st         al, @0x3E20 <patch_rx_timing_report>
    187A:	3E00      	**prefx    0x3E
    187B:	2125      	st         al, @0x3E21 <patch_pending_mode>
    187C:	3E00      	**prefx    0x3E
    187D:	1F25      	st         al, @0x3E1F <patch_pending>
    187E:	0017      	ld         al, @(0x0, y)
    187F:	0113      	ld         ah, @(+0x1, y)
    1880:	7B00      	**prefx    0x7B
    1881:	E79C      	bsr        +0x7AE7 <___libgatt_lib_db_73:0x9368[p]>
    1882:	030F      	leave      #+0x3

0x00001883 <___libgatt_lib_db_4568>:
    1883:	010B      	enter      #+0x1
    1884:	9300      	**prefx    0x93
    1885:	6515      	ld         al, @0x9365 <___libgatt_lib_db_18>
    1886:	0384      	cmp        al, #+0x3
    1887:	0BF0      	bne        +0xB <___libgatt_lib_db_4568+0xF:0x1892[p]>
    1888:	3E00      	**prefx    0x3E
    1889:	3715      	ld         al, @0x3E37 <enable_lo_offset_adc_update+0x2>
    188A:	CD00      	**prefx    0xCD
    188B:	6734      	add        al, #-0x3299
    188C:	FF27      	st         al, @(-0x1, y)
    188D:	FF9F      	bsr        @(-0x1, y)
    188E:	E199      	tst        @0xFFE1 <register al>
    188F:	03F4      	beq        +0x3 <___libgatt_lib_db_4568+0xF:0x1892[p]>
    1890:	0C14      	ld         al, #+0xC
    1891:	080F      	leave      #+0x8
    1892:	010F      	leave      #+0x1

0x00001893 <___libgatt_lib_db_4569>:
    1893:	010B      	enter      #+0x1
    1894:	0A17      	ld         al, @(+0xA, y)
    1895:	0FC4      	and        al, #0xF
    1896:	0584      	cmp        al, #+0x5
    1897:	0AF0      	bne        +0xA <___libgatt_lib_db_4569+0xE:0x18A1[p]>
    1898:	FE00      	**prefx    0xFE
    1899:	549C      	bsr        -0x1AC <IdGetLlVerBtle:0x16ED[p]>
    189A:	0684      	cmp        al, #+0x6
    189B:	032C      	bcz        +0x3 <___libgatt_lib_db_4569+0xB:0x189E[p]>
    189C:	0114      	ld         al, #+0x1
    189D:	05E0      	bra        +0x5 <___libgatt_lib_db_4569+0xF:0x18A2[p]>
    189E:	1114      	ld         al, #+0x11
    189F:	0C0F      	leave      #+0xC
    18A0:	04E0      	bra        +0x4 <___libgatt_lib_db_4569+0x11:0x18A4[p]>
    18A1:	0014      	ld         al, #+0x0
    18A2:	3E00      	**prefx    0x3E
    18A3:	5F25      	st         al, @0x3E5F <enable_lowduty_directed_adv>
    18A4:	010F      	leave      #+0x1

0x000018A5 <___libgatt_lib_db_4573>:
    18A5:	030B      	enter      #+0x3
    18A6:	F925      	st         al, @0xFFF9 <(scratchpad)>
    18A7:	F821      	st         ah, @0xFFF8 <(scratchpad)>
    18A8:	0313      	ld         ah, @(+0x3, y)
    18A9:	0417      	ld         al, @(+0x4, y)
    18AA:	FA25      	st         al, @0xFFFA <(scratchpad)>
    18AB:	16F4      	beq        +0x16 <___libgatt_lib_db_4573+0x1C:0x18C1[p]>
    18AC:	0380      	cmp        ah, #+0x3
    18AD:	142C      	bcz        +0x14 <___libgatt_lib_db_4573+0x1C:0x18C1[p]>
    18AE:	1C80      	cmp        ah, #+0x1C
    18AF:	12F8      	bcc        +0x12 <___libgatt_lib_db_4573+0x1C:0x18C1[p]>
    18B0:	E015      	ld         al, @0xFFE0 <register ah>
    18B1:	FC34      	add        al, #-0x4
    18B2:	F819      	ld         x, @0xFFF8 <(scratchpad)>
    18B3:	0086      	cmp        al, @(0x0, x)
    18B4:	0DF0      	bne        +0xD <___libgatt_lib_db_4573+0x1C:0x18C1[p]>
    18B5:	3E00      	**prefx    0x3E
    18B6:	3819      	ld         x, @0x3E38 <enable_lo_offset_adc_update+0x3>
    18B7:	9500      	**prefx    0x95
    18B8:	6B38      	add        x, #-0x6A95
    18B9:	0023      	st         ah, @(0x0, y)
    18BA:	FA15      	ld         al, @0xFFFA <(scratchpad)>
    18BB:	0127      	st         al, @(+0x1, y)
    18BC:	F915      	ld         al, @0xFFF9 <(scratchpad)>
    18BD:	F811      	ld         ah, @0xFFF8 <(scratchpad)>
    18BE:	FF2B      	st         x, @(-0x1, y)
    18BF:	FF9F      	bsr        @(-0x1, y)
    18C0:	02E0      	bra        +0x2 <___libgatt_lib_db_4573+0x1D:0x18C2[p]>
    18C1:	0114      	ld         al, #+0x1
    18C2:	030F      	leave      #+0x3

0x000018C3 <___libgatt_lib_db_4572>:
    18C3:	010B      	enter      #+0x1
    18C4:	0117      	ld         al, @(+0x1, y)
    18C5:	0213      	ld         ah, @(+0x2, y)
    18C6:	0684      	cmp        al, #+0x6
    18C7:	07F0      	bne        +0x7 <___libgatt_lib_db_4572+0xB:0x18CE[p]>
    18C8:	E015      	ld         al, @0xFFE0 <register ah>
    18C9:	9400      	**prefx    0x94
    18CA:	7410      	ld         ah, #-0x6B8C
    18CB:	EB00      	**prefx    0xEB
    18CC:	CE9C      	bsr        -0x1532 <___libgatt_lib_db_4604:0x39A[p]>
    18CD:	040F      	leave      #+0x4
    18CE:	010F      	leave      #+0x1

0x000018CF <___libgatt_lib_db_4576>:
    18CF:	0017      	ld         al, @(0x0, y)
    18D0:	0E84      	cmp        al, #+0xE
    18D1:	04F4      	beq        +0x4 <___libgatt_lib_db_4576+0x6:0x18D5[p]>
    18D2:	1884      	cmp        al, #+0x18
    18D3:	09F0      	bne        +0x9 <___libgatt_lib_db_4576+0xD:0x18DC[p]>
    18D4:	05E0      	bra        +0x5 <___libgatt_lib_db_4576+0xA:0x18D9[p]>
    18D5:	1A00      	**prefx    0x1A
    18D6:	DA14      	ld         al, #+0x19DA
    18D7:	0127      	st         al, @(+0x1, y)
    18D8:	00E2      	bra        0x0, x
    18D9:	1900      	**prefx    0x19
    18DA:	DD14      	ld         al, #+0x18DD
    18DB:	0127      	st         al, @(+0x1, y)
    18DC:	00E2      	bra        0x0, x

0x000018DD <.LFB4>:
    18DD:	0F0B      	enter      #+0xF
    18DE:	0C27      	st         al, @(+0xC, y)
    18DF:	0D23      	st         ah, @(+0xD, y)
    18E0:	0014      	ld         al, #+0x0
    18E1:	0427      	st         al, @(+0x4, y)
    18E2:	FF18      	ld         x, #-0x1
    18E3:	052B      	st         x, @(+0x5, y)
    18E4:	E099      	tst        @0xFFE0 <register ah>
    18E5:	07F4      	beq        +0x7 <.LFB4+0xF:0x18EC[p]>
    18E6:	0C1B      	ld         x, @(+0xC, y)
    18E7:	0100      	**prefx    0x1
    18E8:	9616      	ld         al, @(+0x96, x)
    18E9:	0134      	add        al, #+0x1
    18EA:	0100      	**prefx    0x1
    18EB:	9726      	st         al, @(+0x97, x)
    18EC:	0C17      	ld         al, @(+0xC, y)
    18ED:	0100      	**prefx    0x1
    18EE:	9734      	add        al, #+0x97
    18EF:	7500      	**prefx    0x75
    18F0:	B79C      	bsr        +0x74B7 <BufReadUint8:0x8DA7[p]>
    18F1:	E199      	tst        @0xFFE1 <register al>
    18F2:	05F4      	beq        +0x5 <.LFB4+0x1A:0x18F7[p]>
    18F3:	0184      	cmp        al, #+0x1
    18F4:	0100      	**prefx    0x1
    18F5:	E1F0      	bne        +0xE1 <.LFB4+0xF9:0x19D6[p]>
    18F6:	05E0      	bra        +0x5 <.LFB4+0x1E:0x18FB[p]>
    18F7:	0014      	ld         al, #+0x0
    18F8:	0727      	st         al, @(+0x7, y)
    18F9:	0100      	**prefx    0x1
    18FA:	C2E0      	bra        +0xC2 <.LFB4+0xDF:0x19BC[p]>
    18FB:	0D9B      	tst        @(+0xD, y)
    18FC:	09F4      	beq        +0x9 <.LFB4+0x28:0x1905[p]>
    18FD:	0D1B      	ld         x, @(+0xD, y)
    18FE:	041A      	ld         x, @(+0x4, x)
    18FF:	072B      	st         x, @(+0x7, y)
    1900:	05F4      	beq        +0x5 <.LFB4+0x28:0x1905[p]>
    1901:	0A00      	**prefx    0xA
    1902:	4388      	cmp        x, #+0xA43
    1903:	0100      	**prefx    0x1
    1904:	C8F0      	bne        +0xC8 <.LFB4+0xEF:0x19CC[p]>
    1905:	0C17      	ld         al, @(+0xC, y)
    1906:	0434      	add        al, #+0x4
    1907:	0627      	st         al, @(+0x6, y)
    1908:	0927      	st         al, @(+0x9, y)
    1909:	0018      	ld         x, #+0x0
    190A:	072B      	st         x, @(+0x7, y)
    190B:	082B      	st         x, @(+0x8, y)
    190C:	62E0      	bra        +0x62 <.LFB4+0x91:0x196E[p]>
    190D:	091B      	ld         x, @(+0x9, y)
    190E:	0016      	ld         al, @(0x0, x)
    190F:	0587      	cmp        al, @(+0x5, y)
    1910:	03FC      	bcs        +0x3 <.LFB4+0x36:0x1913[p]>
    1911:	049B      	tst        @(+0x4, y)
    1912:	07F0      	bne        +0x7 <.LFB4+0x3C:0x1919[p]>
    1913:	E411      	ld         ah, @0xFFE4 <register uy>
    1914:	0530      	add        ah, #+0x5
    1915:	0100      	**prefx    0x1
    1916:	9400      	**prefx    0x94
    1917:	1C9C      	bsr        +0x941C <___libgatt_lib_db_273:0xAD33[p]>
    1918:	0427      	st         al, @(+0x4, y)
    1919:	0917      	ld         al, @(+0x9, y)
    191A:	0334      	add        al, #+0x3
    191B:	0B27      	st         al, @(+0xB, y)
    191C:	41E0      	bra        +0x41 <.LFB4+0x80:0x195D[p]>
    191D:	E181      	cmp        ah, @0xFFE1 <register al>
    191E:	38F0      	bne        +0x38 <.LFB4+0x79:0x1956[p]>
    191F:	0D9B      	tst        @(+0xD, y)
    1920:	28F0      	bne        +0x28 <.LFB4+0x6B:0x1948[p]>
    1921:	F819      	ld         x, @0xFFF8 <(scratchpad)>
    1922:	0012      	ld         ah, @(0x0, x)
    1923:	0009      	**unsigned
    1924:	08A4      	lsr        #0x8
    1925:	04C0      	and        ah, #0x4
    1926:	30F4      	beq        +0x30 <.LFB4+0x79:0x1956[p]>
    1927:	091B      	ld         x, @(+0x9, y)
    1928:	0216      	ld         al, @(+0x2, x)
    1929:	0DF4      	beq        +0xD <.LFB4+0x59:0x1936[p]>
    192A:	0027      	st         al, @(0x0, y)
    192B:	091B      	ld         x, @(+0x9, y)
    192C:	011A      	ld         x, @(+0x1, x)
    192D:	012B      	st         x, @(+0x1, y)
    192E:	9700      	**prefx    0x97
    192F:	C014      	ld         al, #-0x6940
    1930:	0B13      	ld         ah, @(+0xB, y)
    1931:	0100      	**prefx    0x1
    1932:	9100      	**prefx    0x91
    1933:	589C      	bsr        +0x9158 <___libgatt_lib_db_288:0xAA8B[p]>
    1934:	9700      	**prefx    0x97
    1935:	C014      	ld         al, #-0x6940
    1936:	0218      	ld         x, #+0x2
    1937:	002B      	st         x, @(0x0, y)
    1938:	091B      	ld         x, @(+0x9, y)
    1939:	011A      	ld         x, @(+0x1, x)
    193A:	012B      	st         x, @(+0x1, y)
    193B:	091B      	ld         x, @(+0x9, y)
    193C:	021A      	ld         x, @(+0x2, x)
    193D:	022B      	st         x, @(+0x2, y)
    193E:	0327      	st         al, @(+0x3, y)
    193F:	0C1B      	ld         x, @(+0xC, y)
    1940:	0016      	ld         al, @(0x0, x)
    1941:	0513      	ld         ah, @(+0x5, y)
    1942:	0100      	**prefx    0x1
    1943:	8A00      	**prefx    0x8A
    1944:	849C      	bsr        +0x8984 <___libgatt_lib_db_226:0xA2C8[p]>
    1945:	0114      	ld         al, #+0x1
    1946:	0827      	st         al, @(+0x8, y)
    1947:	0FE0      	bra        +0xF <.LFB4+0x79:0x1956[p]>
    1948:	0D1B      	ld         x, @(+0xD, y)
    1949:	041A      	ld         x, @(+0x4, x)
    194A:	072B      	st         x, @(+0x7, y)
    194B:	0A00      	**prefx    0xA
    194C:	4388      	cmp        x, #+0xA43
    194D:	09F0      	bne        +0x9 <.LFB4+0x79:0x1956[p]>
    194E:	E415      	ld         al, @0xFFE4 <register uy>
    194F:	0434      	add        al, #+0x4
    1950:	0913      	ld         ah, @(+0x9, y)
    1951:	0100      	**prefx    0x1
    1952:	9300      	**prefx    0x93
    1953:	939C      	bsr        +0x9293 <___libgatt_lib_db_271:0xABE6[p]>
    1954:	0727      	st         al, @(+0x7, y)
    1955:	13F0      	bne        +0x13 <.LFB4+0x8B:0x1968[p]>
    1956:	0417      	ld         al, @(+0x4, y)
    1957:	E411      	ld         ah, @0xFFE4 <register uy>
    1958:	0530      	add        ah, #+0x5
    1959:	0100      	**prefx    0x1
    195A:	9300      	**prefx    0x93
    195B:	159C      	bsr        +0x9315 <___libgatt_lib_db_279:0xAC70[p]>
    195C:	0427      	st         al, @(+0x4, y)
    195D:	0417      	ld         al, @(+0x4, y)
    195E:	F825      	st         al, @0xFFF8 <(scratchpad)>
    195F:	09F4      	beq        +0x9 <.LFB4+0x8B:0x1968[p]>
    1960:	0513      	ld         ah, @(+0x5, y)
    1961:	091B      	ld         x, @(+0x9, y)
    1962:	0016      	ld         al, @(0x0, x)
    1963:	E181      	cmp        ah, @0xFFE1 <register al>
    1964:	022C      	bcz        +0x2 <.LFB4+0x89:0x1966[p]>
    1965:	03E0      	bra        +0x3 <.LFB4+0x8B:0x1968[p]>
    1966:	079B      	tst        @(+0x7, y)
    1967:	B6F4      	beq        -0x4A <.LFB4+0x40:0x191D[p]>
    1968:	0C17      	ld         al, @(+0xC, y)
    1969:	0913      	ld         ah, @(+0x9, y)
    196A:	0100      	**prefx    0x1
    196B:	9200      	**prefx    0x92
    196C:	C39C      	bsr        +0x91C3 <___libgatt_lib_db_291:0xAB2F[p]>
    196D:	0927      	st         al, @(+0x9, y)
    196E:	099B      	tst        @(+0x9, y)
    196F:	03F4      	beq        +0x3 <.LFB4+0x95:0x1972[p]>
    1970:	079B      	tst        @(+0x7, y)
    1971:	9CF4      	beq        -0x64 <.LFB4+0x30:0x190D[p]>
    1972:	089B      	tst        @(+0x8, y)
    1973:	10F4      	beq        +0x10 <.LFB4+0xA6:0x1983[p]>
    1974:	4000      	**prefx    0x40
    1975:	0014      	ld         al, #+0x4000
    1976:	0027      	st         al, @(0x0, y)
    1977:	0018      	ld         x, #+0x0
    1978:	012B      	st         x, @(+0x1, y)
    1979:	022B      	st         x, @(+0x2, y)
    197A:	032B      	st         x, @(+0x3, y)
    197B:	0C1B      	ld         x, @(+0xC, y)
    197C:	0016      	ld         al, @(0x0, x)
    197D:	0010      	ld         ah, #+0x0
    197E:	0100      	**prefx    0x1
    197F:	8900      	**prefx    0x89
    1980:	489C      	bsr        +0x8948 <___libgatt_lib_db_226:0xA2C8[p]>
    1981:	0014      	ld         al, #+0x0
    1982:	53E0      	bra        +0x53 <.LFB4+0xF8:0x19D5[p]>
    1983:	0D9B      	tst        @(+0xD, y)
    1984:	38F0      	bne        +0x38 <.LFB4+0xDF:0x19BC[p]>
    1985:	FF14      	ld         al, #-0x1
    1986:	0527      	st         al, @(+0x5, y)
    1987:	0018      	ld         x, #+0x0
    1988:	042B      	st         x, @(+0x4, y)
    1989:	2FE0      	bra        +0x2F <.LFB4+0xDB:0x19B8[p]>
    198A:	061B      	ld         x, @(+0x6, y)
    198B:	0016      	ld         al, @(0x0, x)
    198C:	0587      	cmp        al, @(+0x5, y)
    198D:	03FC      	bcs        +0x3 <.LFB4+0xB3:0x1990[p]>
    198E:	049B      	tst        @(+0x4, y)
    198F:	18F0      	bne        +0x18 <.LFB4+0xCA:0x19A7[p]>
    1990:	E411      	ld         ah, @0xFFE4 <register uy>
    1991:	0530      	add        ah, #+0x5
    1992:	0100      	**prefx    0x1
    1993:	9400      	**prefx    0x94
    1994:	9F9C      	bsr        +0x939F <___libgatt_lib_db_273:0xAD33[p]>
    1995:	11E0      	bra        +0x11 <.LFB4+0xC9:0x19A6[p]>
    1996:	E181      	cmp        ah, @0xFFE1 <register al>
    1997:	09F0      	bne        +0x9 <.LFB4+0xC3:0x19A0[p]>
    1998:	E415      	ld         al, @0xFFE4 <register uy>
    1999:	0434      	add        al, #+0x4
    199A:	0613      	ld         ah, @(+0x6, y)
    199B:	0100      	**prefx    0x1
    199C:	9200      	**prefx    0x92
    199D:	499C      	bsr        +0x9249 <___libgatt_lib_db_271:0xABE6[p]>
    199E:	0A27      	st         al, @(+0xA, y)
    199F:	11F0      	bne        +0x11 <.LFB4+0xD3:0x19B0[p]>
    19A0:	0417      	ld         al, @(+0x4, y)
    19A1:	E411      	ld         ah, @0xFFE4 <register uy>
    19A2:	0530      	add        ah, #+0x5
    19A3:	0100      	**prefx    0x1
    19A4:	9300      	**prefx    0x93
    19A5:	CB9C      	bsr        +0x92CB <___libgatt_lib_db_279:0xAC70[p]>
    19A6:	0427      	st         al, @(+0x4, y)
    19A7:	049B      	tst        @(+0x4, y)
    19A8:	06F4      	beq        +0x6 <.LFB4+0xD1:0x19AE[p]>
    19A9:	0513      	ld         ah, @(+0x5, y)
    19AA:	061B      	ld         x, @(+0x6, y)
    19AB:	0016      	ld         al, @(0x0, x)
    19AC:	E181      	cmp        ah, @0xFFE1 <register al>
    19AD:	E92C      	bcz        -0x17 <.LFB4+0xB9:0x1996[p]>
    19AE:	0014      	ld         al, #+0x0
    19AF:	0A27      	st         al, @(+0xA, y)
    19B0:	0C17      	ld         al, @(+0xC, y)
    19B1:	0613      	ld         ah, @(+0x6, y)
    19B2:	0100      	**prefx    0x1
    19B3:	9100      	**prefx    0x91
    19B4:	7B9C      	bsr        +0x917B <___libgatt_lib_db_291:0xAB2F[p]>
    19B5:	0627      	st         al, @(+0x6, y)
    19B6:	0A1B      	ld         x, @(+0xA, y)
    19B7:	072B      	st         x, @(+0x7, y)
    19B8:	069B      	tst        @(+0x6, y)
    19B9:	03F4      	beq        +0x3 <.LFB4+0xDF:0x19BC[p]>
    19BA:	079B      	tst        @(+0x7, y)
    19BB:	CFF4      	beq        -0x31 <.LFB4+0xAD:0x198A[p]>
    19BC:	0C17      	ld         al, @(+0xC, y)
    19BD:	0100      	**prefx    0x1
    19BE:	9100      	**prefx    0x91
    19BF:	6A9C      	bsr        +0x916A <___libgatt_lib_db_290:0xAB29[p]>
    19C0:	079B      	tst        @(+0x7, y)
    19C1:	0BF0      	bne        +0xB <.LFB4+0xEF:0x19CC[p]>
    19C2:	0C17      	ld         al, @(+0xC, y)
    19C3:	1910      	ld         ah, #+0x19
    19C4:	0100      	**prefx    0x1
    19C5:	8200      	**prefx    0x82
    19C6:	469C      	bsr        +0x8246 <___libgatt_lib_db_164:0x9C0C[p]>
    19C7:	0C17      	ld         al, @(+0xC, y)
    19C8:	0100      	**prefx    0x1
    19C9:	8200      	**prefx    0x82
    19CA:	FD9C      	bsr        +0x81FD <___libgatt_lib_db_165:0x9BC7[p]>
    19CB:	09E0      	bra        +0x9 <.LFB4+0xF7:0x19D4[p]>
    19CC:	0517      	ld         al, @(+0x5, y)
    19CD:	0027      	st         al, @(0x0, y)
    19CE:	071B      	ld         x, @(+0x7, y)
    19CF:	012B      	st         x, @(+0x1, y)
    19D0:	0C17      	ld         al, @(+0xC, y)
    19D1:	1810      	ld         ah, #+0x18
    19D2:	7F00      	**prefx    0x7F
    19D3:	B89C      	bsr        +0x7EB8 <___libgatt_lib_db_143:0x988B[p]>
    19D4:	0114      	ld         al, #+0x1
    19D5:	0F0F      	leave      #+0xF
    19D6:	0A00      	**prefx    0xA
    19D7:	0414      	ld         al, #+0xA04
    19D8:	0727      	st         al, @(+0x7, y)
    19D9:	F3E0      	bra        -0xD <.LFB4+0xEF:0x19CC[p]>

0x000019DA <.LFB3>:
    19DA:	0E0B      	enter      #+0xE
    19DB:	0B27      	st         al, @(+0xB, y)
    19DC:	0C23      	st         ah, @(+0xC, y)
    19DD:	FF14      	ld         al, #-0x1
    19DE:	0427      	st         al, @(+0x4, y)
    19DF:	0B1B      	ld         x, @(+0xB, y)
    19E0:	0100      	**prefx    0x1
    19E1:	9616      	ld         al, @(+0x96, x)
    19E2:	0100      	**prefx    0x1
    19E3:	9756      	sub        al, @(+0x97, x)
    19E4:	0100      	**prefx    0x1
    19E5:	9836      	add        al, @(+0x98, x)
    19E6:	0727      	st         al, @(+0x7, y)
    19E7:	01C4      	and        al, #0x1
    19E8:	06F4      	beq        +0x6 <.LFB3+0x14:0x19EE[p]>
    19E9:	0018      	ld         x, #+0x0
    19EA:	002B      	st         x, @(0x0, y)
    19EB:	0A00      	**prefx    0xA
    19EC:	0414      	ld         al, #+0xA04
    19ED:	4DE0      	bra        +0x4D <.LFB3+0x60:0x1A3A[p]>
    19EE:	0B17      	ld         al, @(+0xB, y)
    19EF:	0F10      	ld         ah, #+0xF
    19F0:	0100      	**prefx    0x1
    19F1:	8200      	**prefx    0x82
    19F2:	1A9C      	bsr        +0x821A <___libgatt_lib_db_164:0x9C0C[p]>
    19F3:	0627      	st         al, @(+0x6, y)
    19F4:	0C9B      	tst        @(+0xC, y)
    19F5:	0100      	**prefx    0x1
    19F6:	8AF4      	beq        +0x8A <.LFB3+0xA6:0x1A80[p]>
    19F7:	0C1B      	ld         x, @(+0xC, y)
    19F8:	0416      	ld         al, @(+0x4, x)
    19F9:	0CF0      	bne        +0xC <.LFB3+0x2B:0x1A05[p]>
    19FA:	0612      	ld         ah, @(+0x6, x)
    19FB:	0516      	ld         al, @(+0x5, x)
    19FC:	0027      	st         al, @(0x0, y)
    19FD:	0B17      	ld         al, @(+0xB, y)
    19FE:	0100      	**prefx    0x1
    19FF:	8200      	**prefx    0x82
    1A00:	EE9C      	bsr        +0x81EE <___libgatt_lib_db_166:0x9BEE[p]>
    1A01:	0627      	st         al, @(+0x6, y)
    1A02:	0018      	ld         x, #+0x0
    1A03:	0C2B      	st         x, @(+0xC, y)
    1A04:	7CE0      	bra        +0x7C <.LFB3+0xA6:0x1A80[p]>
    1A05:	0A00      	**prefx    0xA
    1A06:	4384      	cmp        al, #+0xA43
    1A07:	0BF0      	bne        +0xB <.LFB3+0x38:0x1A12[p]>
    1A08:	0B1B      	ld         x, @(+0xB, y)
    1A09:	0100      	**prefx    0x1
    1A0A:	9716      	ld         al, @(+0x97, x)
    1A0B:	FE34      	add        al, #-0x2
    1A0C:	0100      	**prefx    0x1
    1A0D:	9726      	st         al, @(+0x97, x)
    1A0E:	0717      	ld         al, @(+0x7, y)
    1A0F:	0234      	add        al, #+0x2
    1A10:	0727      	st         al, @(+0x7, y)
    1A11:	6FE0      	bra        +0x6F <.LFB3+0xA6:0x1A80[p]>
    1A12:	0C1B      	ld         x, @(+0xC, y)
    1A13:	031A      	ld         x, @(+0x3, x)
    1A14:	25E0      	bra        +0x25 <.LFB3+0x5F:0x1A39[p]>
    1A15:	0A17      	ld         al, @(+0xA, y)
    1A16:	7400      	**prefx    0x74
    1A17:	9C9C      	bsr        +0x739C <BufReadUint16:0x8DB3[p]>
    1A18:	0827      	st         al, @(+0x8, y)
    1A19:	0487      	cmp        al, @(+0x4, y)
    1A1A:	03FC      	bcs        +0x3 <.LFB3+0x43:0x1A1D[p]>
    1A1B:	059B      	tst        @(+0x5, y)
    1A1C:	4DF0      	bne        +0x4D <.LFB3+0x8F:0x1A69[p]>
    1A1D:	0817      	ld         al, @(+0x8, y)
    1A1E:	E411      	ld         ah, @0xFFE4 <register uy>
    1A1F:	0430      	add        ah, #+0x4
    1A20:	0100      	**prefx    0x1
    1A21:	9300      	**prefx    0x93
    1A22:	119C      	bsr        +0x9311 <___libgatt_lib_db_273:0xAD33[p]>
    1A23:	45E0      	bra        +0x45 <.LFB3+0x8E:0x1A68[p]>
    1A24:	0887      	cmp        al, @(+0x8, y)
    1A25:	3DF0      	bne        +0x3D <.LFB3+0x88:0x1A62[p]>
    1A26:	0517      	ld         al, @(+0x5, y)
    1A27:	0100      	**prefx    0x1
    1A28:	9300      	**prefx    0x93
    1A29:	B29C      	bsr        +0x92B2 <___libgatt_lib_db_280:0xACDB[p]>
    1A2A:	02C4      	and        al, #0x2
    1A2B:	04F0      	bne        +0x4 <.LFB3+0x55:0x1A2F[p]>
    1A2C:	0A00      	**prefx    0xA
    1A2D:	0214      	ld         al, #+0xA02
    1A2E:	0AE0      	bra        +0xA <.LFB3+0x5E:0x1A38[p]>
    1A2F:	0214      	ld         al, #+0x2
    1A30:	0027      	st         al, @(0x0, y)
    1A31:	0B17      	ld         al, @(+0xB, y)
    1A32:	0513      	ld         ah, @(+0x5, y)
    1A33:	0100      	**prefx    0x1
    1A34:	8800      	**prefx    0x88
    1A35:	6B9C      	bsr        +0x886B <___libgatt_lib_db_222:0xA2A0[p]>
    1A36:	E199      	tst        @0xFFE1 <register al>
    1A37:	05F4      	beq        +0x5 <.LFB3+0x62:0x1A3C[p]>
    1A38:	081B      	ld         x, @(+0x8, y)
    1A39:	002B      	st         x, @(0x0, y)
    1A3A:	0127      	st         al, @(+0x1, y)
    1A3B:	40E0      	bra        +0x40 <.LFB3+0xA1:0x1A7B[p]>
    1A3C:	0C9B      	tst        @(+0xC, y)
    1A3D:	16F0      	bne        +0x16 <.LFB3+0x79:0x1A53[p]>
    1A3E:	051B      	ld         x, @(+0x5, y)
    1A3F:	0012      	ld         ah, @(0x0, x)
    1A40:	0009      	**unsigned
    1A41:	08A4      	lsr        #0x8
    1A42:	04C0      	and        ah, #0x4
    1A43:	10F4      	beq        +0x10 <.LFB3+0x79:0x1A53[p]>
    1A44:	8000      	**prefx    0x80
    1A45:	0114      	ld         al, #-0x7FFF
    1A46:	0027      	st         al, @(0x0, y)
    1A47:	0018      	ld         x, #+0x0
    1A48:	012B      	st         x, @(+0x1, y)
    1A49:	022B      	st         x, @(+0x2, y)
    1A4A:	032B      	st         x, @(+0x3, y)
    1A4B:	0B1B      	ld         x, @(+0xB, y)
    1A4C:	0016      	ld         al, @(0x0, x)
    1A4D:	0813      	ld         ah, @(+0x8, y)
    1A4E:	0100      	**prefx    0x1
    1A4F:	8800      	**prefx    0x88
    1A50:	789C      	bsr        +0x8878 <___libgatt_lib_db_226:0xA2C8[p]>
    1A51:	0014      	ld         al, #+0x0
    1A52:	41E0      	bra        +0x41 <.LFB3+0xB9:0x1A93[p]>
    1A53:	0014      	ld         al, #+0x0
    1A54:	0027      	st         al, @(0x0, y)
    1A55:	061B      	ld         x, @(+0x6, y)
    1A56:	012B      	st         x, @(+0x1, y)
    1A57:	0917      	ld         al, @(+0x9, y)
    1A58:	0513      	ld         ah, @(+0x5, y)
    1A59:	0100      	**prefx    0x1
    1A5A:	9200      	**prefx    0x92
    1A5B:	E39C      	bsr        +0x91E3 <___libgatt_lib_db_282:0xAC3E[p]>
    1A5C:	061B      	ld         x, @(+0x6, y)
    1A5D:	E159      	sub        x, @0xFFE1 <register al>
    1A5E:	062B      	st         x, @(+0x6, y)
    1A5F:	0014      	ld         al, #+0x0
    1A60:	0C27      	st         al, @(+0xC, y)
    1A61:	0DE0      	bra        +0xD <.LFB3+0x94:0x1A6E[p]>
    1A62:	0517      	ld         al, @(+0x5, y)
    1A63:	E411      	ld         ah, @0xFFE4 <register uy>
    1A64:	0430      	add        ah, #+0x4
    1A65:	0100      	**prefx    0x1
    1A66:	9200      	**prefx    0x92
    1A67:	099C      	bsr        +0x9209 <___libgatt_lib_db_279:0xAC70[p]>
    1A68:	0527      	st         al, @(+0x5, y)
    1A69:	059B      	tst        @(+0x5, y)
    1A6A:	0CF4      	beq        +0xC <.LFB3+0x9C:0x1A76[p]>
    1A6B:	0417      	ld         al, @(+0x4, y)
    1A6C:	0887      	cmp        al, @(+0x8, y)
    1A6D:	B72C      	bcz        -0x49 <.LFB3+0x4A:0x1A24[p]>
    1A6E:	0417      	ld         al, @(+0x4, y)
    1A6F:	0887      	cmp        al, @(+0x8, y)
    1A70:	022C      	bcz        +0x2 <.LFB3+0x98:0x1A72[p]>
    1A71:	05E0      	bra        +0x5 <.LFB3+0x9C:0x1A76[p]>
    1A72:	071B      	ld         x, @(+0x7, y)
    1A73:	FE38      	add        x, #-0x2
    1A74:	072B      	st         x, @(+0x7, y)
    1A75:	15E0      	bra        +0x15 <.LFB3+0xB0:0x1A8A[p]>
    1A76:	0817      	ld         al, @(+0x8, y)
    1A77:	0027      	st         al, @(0x0, y)
    1A78:	0A00      	**prefx    0xA
    1A79:	0118      	ld         x, #+0xA01
    1A7A:	012B      	st         x, @(+0x1, y)
    1A7B:	0B17      	ld         al, @(+0xB, y)
    1A7C:	0E10      	ld         ah, #+0xE
    1A7D:	7E00      	**prefx    0x7E
    1A7E:	0D9C      	bsr        +0x7E0D <___libgatt_lib_db_143:0x988B[p]>
    1A7F:	13E0      	bra        +0x13 <.LFB3+0xB8:0x1A92[p]>
    1A80:	0B17      	ld         al, @(+0xB, y)
    1A81:	0100      	**prefx    0x1
    1A82:	9734      	add        al, #+0x97
    1A83:	0A27      	st         al, @(+0xA, y)
    1A84:	0B1B      	ld         x, @(+0xB, y)
    1A85:	0100      	**prefx    0x1
    1A86:	9A38      	add        x, #+0x9A
    1A87:	092B      	st         x, @(+0x9, y)
    1A88:	0014      	ld         al, #+0x0
    1A89:	0527      	st         al, @(+0x5, y)
    1A8A:	079B      	tst        @(+0x7, y)
    1A8B:	03F4      	beq        +0x3 <.LFB3+0xB4:0x1A8E[p]>
    1A8C:	069B      	tst        @(+0x6, y)
    1A8D:	88F0      	bne        -0x78 <.LFB3+0x3B:0x1A15[p]>
    1A8E:	0B17      	ld         al, @(+0xB, y)
    1A8F:	0100      	**prefx    0x1
    1A90:	8100      	**prefx    0x81
    1A91:	369C      	bsr        +0x8136 <___libgatt_lib_db_165:0x9BC7[p]>
    1A92:	0114      	ld         al, #+0x1
    1A93:	0E0F      	leave      #+0xE

0x00001A94 <___libgatt_lib_db_4632>:
    1A94:	0C0B      	enter      #+0xC
    1A95:	3E00      	**prefx    0x3E
    1A96:	5F99      	tst        @0x3E5F <enable_lowduty_directed_adv>
    1A97:	56F4      	beq        +0x56 <___libgatt_lib_db_4632+0x59:0x1AED[p]>
    1A98:	0214      	ld         al, #+0x2
    1A99:	0100      	**prefx    0x1
    1A9A:	9E00      	**prefx    0x9E
    1A9B:	289C      	bsr        +0x9E28 <___libgatt_lib_db_4015:0xB8C3[p]>
    1A9C:	0284      	cmp        al, #+0x2
    1A9D:	06F4      	beq        +0x6 <___libgatt_lib_db_4632+0xF:0x1AA3[p]>
    1A9E:	CF00      	**prefx    0xCF
    1A9F:	E314      	ld         al, #-0x311D
    1AA0:	0B27      	st         al, @(+0xB, y)
    1AA1:	0C14      	ld         al, #+0xC
    1AA2:	4BE0      	bra        +0x4B <___libgatt_lib_db_4632+0x59:0x1AED[p]>
    1AA3:	1A1B      	ld         x, @(+0x1A, y)
    1AA4:	092B      	st         x, @(+0x9, y)
    1AA5:	1D17      	ld         al, @(+0x1D, y)
    1AA6:	0827      	st         al, @(+0x8, y)
    1AA7:	1E1B      	ld         x, @(+0x1E, y)
    1AA8:	072B      	st         x, @(+0x7, y)
    1AA9:	1F17      	ld         al, @(+0x1F, y)
    1AAA:	0A27      	st         al, @(+0xA, y)
    1AAB:	4118      	ld         x, #+0x41
    1AAC:	9700      	**prefx    0x97
    1AAD:	5F29      	st         x, @0x975F <le_device+0xA>
    1AAE:	0817      	ld         al, @(+0x8, y)
    1AAF:	9700      	**prefx    0x97
    1AB0:	6325      	st         al, @0x9763 <le_device+0xE>
    1AB1:	E415      	ld         al, @0xFFE4 <register uy>
    1AB2:	0134      	add        al, #+0x1
    1AB3:	0100      	**prefx    0x1
    1AB4:	9B00      	**prefx    0x9B
    1AB5:	E29C      	bsr        +0x9AE2 <___libgatt_lib_db_3944:0xB597[p]>
    1AB6:	A200      	**prefx    0xA2
    1AB7:	B715      	ld         al, @0xA1B7 <___libgatt_lib_db_4169>
    1AB8:	0100      	**prefx    0x1
    1AB9:	9B00      	**prefx    0x9B
    1ABA:	FF9C      	bsr        +0x9AFF <___libgatt_lib_db_3947:0xB5B9[p]>
    1ABB:	0627      	st         al, @(+0x6, y)
    1ABC:	071B      	ld         x, @(+0x7, y)
    1ABD:	9700      	**prefx    0x97
    1ABE:	6229      	st         x, @0x9762 <le_device+0xD>
    1ABF:	0414      	ld         al, #+0x4
    1AC0:	9700      	**prefx    0x97
    1AC1:	6410      	ld         ah, #-0x689C
    1AC2:	0A1B      	ld         x, @(+0xA, y)
    1AC3:	FD09      	bc2        
    1AC4:	0A17      	ld         al, @(+0xA, y)
    1AC5:	E411      	ld         ah, @0xFFE4 <register uy>
    1AC6:	0330      	add        ah, #+0x3
    1AC7:	0100      	**prefx    0x1
    1AC8:	9E00      	**prefx    0x9E
    1AC9:	4E9C      	bsr        +0x9E4E <___libgatt_lib_db_4023:0xB917[p]>
    1ACA:	0617      	ld         al, @(+0x6, y)
    1ACB:	0834      	add        al, #+0x8
    1ACC:	0618      	ld         x, #+0x6
    1ACD:	002B      	st         x, @(0x0, y)
    1ACE:	E411      	ld         ah, @0xFFE4 <register uy>
    1ACF:	0330      	add        ah, #+0x3
    1AD0:	7200      	**prefx    0x72
    1AD1:	0F9C      	bsr        +0x720F <MemCopyUnPack:0x8CE0[p]>
    1AD2:	0C14      	ld         al, #+0xC
    1AD3:	061B      	ld         x, @(+0x6, y)
    1AD4:	0126      	st         al, @(+0x1, x)
    1AD5:	0817      	ld         al, @(+0x8, y)
    1AD6:	06A0      	asl        #0x6
    1AD7:	F825      	st         al, @0xFFF8 <(scratchpad)>
    1AD8:	0717      	ld         al, @(+0x7, y)
    1AD9:	07A0      	asl        #0x7
    1ADA:	F8B5      	or         al, @0xFFF8 <(scratchpad)>
    1ADB:	01B4      	or         al, #+0x1
    1ADC:	0026      	st         al, @(0x0, x)
    1ADD:	E415      	ld         al, @0xFFE4 <register uy>
    1ADE:	0134      	add        al, #+0x1
    1ADF:	0100      	**prefx    0x1
    1AE0:	9B00      	**prefx    0x9B
    1AE1:	BF9C      	bsr        +0x9ABF <___libgatt_lib_db_3945:0xB5A0[p]>
    1AE2:	091B      	ld         x, @(+0x9, y)
    1AE3:	F600      	**prefx    0xF6
    1AE4:	F229      	st         x, @0xF5F2 <___libgatt_lib_db_1825>
    1AE5:	F700      	**prefx    0xF7
    1AE6:	B715      	ld         al, @0xF6B7 <___libgatt_lib_db_1826>
    1AE7:	FDC4      	and        al, #0xFFFD
    1AE8:	F700      	**prefx    0xF7
    1AE9:	B725      	st         al, @0xF6B7 <___libgatt_lib_db_1826>
    1AEA:	CF00      	**prefx    0xCF
    1AEB:	DA14      	ld         al, #-0x3126
    1AEC:	0B27      	st         al, @(+0xB, y)
    1AED:	0C0F      	leave      #+0xC

0x00001AEE <___libgatt_lib_db_4633>:
    1AEE:	020B      	enter      #+0x2
    1AEF:	0014      	ld         al, #+0x0
    1AF0:	0027      	st         al, @(0x0, y)
    1AF1:	0917      	ld         al, @(+0x9, y)
    1AF2:	9000      	**prefx    0x90
    1AF3:	9184      	cmp        al, #-0x706F
    1AF4:	14F0      	bne        +0x14 <___libgatt_lib_db_4633+0x1A:0x1B08[p]>
    1AF5:	0100      	**prefx    0x1
    1AF6:	B200      	**prefx    0xB2
    1AF7:	739C      	bsr        +0xB273 <___libgatt_lib_db_4084:0xCD6A[p]>
    1AF8:	0027      	st         al, @(0x0, y)
    1AF9:	0017      	ld         al, @(0x0, y)
    1AFA:	0CF0      	bne        +0xC <___libgatt_lib_db_4633+0x18:0x1B06[p]>
    1AFB:	9300      	**prefx    0x93
    1AFC:	6815      	ld         al, @0x9368 <___libgatt_lib_db_73>
    1AFD:	0284      	cmp        al, #+0x2
    1AFE:	08F0      	bne        +0x8 <___libgatt_lib_db_4633+0x18:0x1B06[p]>
    1AFF:	9300      	**prefx    0x93
    1B00:	6915      	ld         al, @0x9369 <___libgatt_lib_db_73+0x1>
    1B01:	0284      	cmp        al, #+0x2
    1B02:	04F0      	bne        +0x4 <___libgatt_lib_db_4633+0x18:0x1B06[p]>
    1B03:	9000      	**prefx    0x90
    1B04:	A514      	ld         al, #-0x705B
    1B05:	0927      	st         al, @(+0x9, y)
    1B06:	0017      	ld         al, @(0x0, y)
    1B07:	0A0F      	leave      #+0xA
    1B08:	020F      	leave      #+0x2

0x00001B09 <___libgatt_lib_db_4663>:
    1B09:	050B      	enter      #+0x5
    1B0A:	0100      	**prefx    0x1
    1B0B:	D800      	**prefx    0xD8
    1B0C:	B39C      	bsr        +0xD7B3 <___libgatt_lib_db_4439:0xF2BF[p]>
    1B0D:	0327      	st         al, @(+0x3, y)
    1B0E:	F600      	**prefx    0xF6
    1B0F:	1915      	ld         al, @0xF619 <___libgatt_lib_db_1964>
    1B10:	7F00      	**prefx    0x7F
    1B11:	00C4      	and        al, #0x7F00
    1B12:	2AB4      	or         al, #+0x2A
    1B13:	F600      	**prefx    0xF6
    1B14:	1925      	st         al, @0xF619 <___libgatt_lib_db_1964>
    1B15:	4100      	**prefx    0x41
    1B16:	2914      	ld         al, #+0x4129
    1B17:	F600      	**prefx    0xF6
    1B18:	1B25      	st         al, @0xF61B <___libgatt_lib_db_1956>
    1B19:	7100      	**prefx    0x71
    1B1A:	7614      	ld         al, #+0x7176
    1B1B:	F600      	**prefx    0xF6
    1B1C:	1A25      	st         al, @0xF61A <___libgatt_lib_db_1955>
    1B1D:	5500      	**prefx    0x55
    1B1E:	5514      	ld         al, #+0x5555
    1B1F:	F600      	**prefx    0xF6
    1B20:	2125      	st         al, @0xF621 <___libgatt_lib_db_1966>
    1B21:	5514      	ld         al, #+0x55
    1B22:	F600      	**prefx    0xF6
    1B23:	2025      	st         al, @0xF620 <___libgatt_lib_db_1965>
    1B24:	E415      	ld         al, @0xFFE4 <register uy>
    1B25:	6410      	ld         ah, #+0x64
    1B26:	7200      	**prefx    0x72
    1B27:	109C      	bsr        +0x7210 <TimeGet48WithOffset:0x8D37[p]>
    1B28:	F600      	**prefx    0xF6
    1B29:	2618      	ld         x, #-0x9DA
    1B2A:	0017      	ld         al, @(0x0, y)
    1B2B:	0026      	st         al, @(0x0, x)
    1B2C:	0117      	ld         al, @(+0x1, y)
    1B2D:	FF26      	st         al, @(-0x1, x)
    1B2E:	0217      	ld         al, @(+0x2, y)
    1B2F:	F600      	**prefx    0xF6
    1B30:	2425      	st         al, @0xF624 <___libgatt_lib_db_1984>
    1B31:	6414      	ld         al, #+0x64
    1B32:	F700      	**prefx    0xF7
    1B33:	8625      	st         al, @0xF686 <___libgatt_lib_db_1982>
    1B34:	0014      	ld         al, #+0x0
    1B35:	F700      	**prefx    0xF7
    1B36:	8525      	st         al, @0xF685 <___libgatt_lib_db_1981>
    1B37:	0114      	ld         al, #+0x1
    1B38:	F600      	**prefx    0xF6
    1B39:	2225      	st         al, @0xF622 <___libgatt_lib_db_1971>
    1B3A:	0100      	**prefx    0x1
    1B3B:	9614      	ld         al, #+0x96
    1B3C:	0100      	**prefx    0x1
    1B3D:	9800      	**prefx    0x98
    1B3E:	1E9C      	bsr        +0x981E <TimeDelayUSec:0xB35C[p]>
    1B3F:	0314      	ld         al, #+0x3
    1B40:	F600      	**prefx    0xF6
    1B41:	5C25      	st         al, @0xF65C <___libgatt_lib_db_1425>
    1B42:	0214      	ld         al, #+0x2
    1B43:	F600      	**prefx    0xF6
    1B44:	5C25      	st         al, @0xF65C <___libgatt_lib_db_1425>
    1B45:	0014      	ld         al, #+0x0
    1B46:	F600      	**prefx    0xF6
    1B47:	5C25      	st         al, @0xF65C <___libgatt_lib_db_1425>
    1B48:	3214      	ld         al, #+0x32
    1B49:	0100      	**prefx    0x1
    1B4A:	9800      	**prefx    0x98
    1B4B:	119C      	bsr        +0x9811 <TimeDelayUSec:0xB35C[p]>
    1B4C:	0214      	ld         al, #+0x2
    1B4D:	F600      	**prefx    0xF6
    1B4E:	2225      	st         al, @0xF622 <___libgatt_lib_db_1971>
    1B4F:	0317      	ld         al, @(+0x3, y)
    1B50:	0100      	**prefx    0x1
    1B51:	D800      	**prefx    0xD8
    1B52:	309C      	bsr        +0xD830 <___libgatt_lib_db_4443:0xF382[p]>
    1B53:	5414      	ld         al, #+0x54
    1B54:	F000      	**prefx    0xF0
    1B55:	5325      	st         al, @0xF053 <___libgatt_lib_db_4430>
    1B56:	FD00      	**prefx    0xFD
    1B57:	0014      	ld         al, #-0x300
    1B58:	F600      	**prefx    0xF6
    1B59:	4625      	st         al, @0xF646 <___libgatt_lib_db_1882>
    1B5A:	9114      	ld         al, #-0x6F
    1B5B:	F600      	**prefx    0xF6
    1B5C:	4725      	st         al, @0xF647 <___libgatt_lib_db_1884>
    1B5D:	050F      	leave      #+0x5

0x00001B5E <___libgatt_lib_db_4665>:
    1B5E:	010B      	enter      #+0x1
    1B5F:	E315      	ld         al, @0xFFE3 <register uxl>
    1B60:	E000      	**prefx    0xE0
    1B61:	6084      	cmp        al, #-0x1FA0
    1B62:	1FF0      	bne        +0x1F <___libgatt_lib_db_4665+0x23:0x1B81[p]>
    1B63:	0917      	ld         al, @(+0x9, y)
    1B64:	E100      	**prefx    0xE1
    1B65:	EA84      	cmp        al, #-0x1F16
    1B66:	1BF0      	bne        +0x1B <___libgatt_lib_db_4665+0x23:0x1B81[p]>
    1B67:	0B13      	ld         ah, @(+0xB, y)
    1B68:	3E00      	**prefx    0x3E
    1B69:	3915      	ld         al, @0x3E39 <enable_lo_offset_adc_update+0x4>
    1B6A:	9300      	**prefx    0x93
    1B6B:	A634      	add        al, #-0x6D5A
    1B6C:	E085      	cmp        al, @0xFFE0 <register ah>
    1B6D:	14F0      	bne        +0x14 <___libgatt_lib_db_4665+0x23:0x1B81[p]>
    1B6E:	3F00      	**prefx    0x3F
    1B6F:	7515      	ld         al, @0x3F75 <___libgatt_lib_db_4667>
    1B70:	07F4      	beq        +0x7 <___libgatt_lib_db_4665+0x19:0x1B77[p]>
    1B71:	0009      	**unsigned
    1B72:	2700      	**prefx    0x27
    1B73:	1090      	umult      #0x2710
    1B74:	0827      	st         al, @(+0x8, y)
    1B75:	0723      	st         ah, @(+0x7, y)
    1B76:	0BE0      	bra        +0xB <___libgatt_lib_db_4665+0x23:0x1B81[p]>
    1B77:	3E00      	**prefx    0x3E
    1B78:	3911      	ld         ah, @0x3E39 <enable_lo_offset_adc_update+0x4>
    1B79:	E000      	**prefx    0xE0
    1B7A:	1930      	add        ah, #-0x1FE7
    1B7B:	9400      	**prefx    0x94
    1B7C:	7015      	ld         al, @0x9470 <tid_con_param_update>
    1B7D:	FF23      	st         ah, @(-0x1, y)
    1B7E:	FF9F      	bsr        @(-0x1, y)
    1B7F:	0014      	ld         al, #+0x0
    1B80:	0F0F      	leave      #+0xF
    1B81:	010F      	leave      #+0x1

0x00001B82 <___libgatt_lib_db_4668>:
    1B82:	010B      	enter      #+0x1
    1B83:	E315      	ld         al, @0xFFE3 <register uxl>
    1B84:	E300      	**prefx    0xE3
    1B85:	DD84      	cmp        al, #-0x1D23
    1B86:	07F0      	bne        +0x7 <___libgatt_lib_db_4668+0xB:0x1B8D[p]>
    1B87:	4D15      	ld         al, @0x4D <___libgatt_lib_db_2571>
    1B88:	07C4      	and        al, #0x7
    1B89:	15F4      	beq        +0x15 <___libgatt_lib_db_4668+0x1C:0x1B9E[p]>
    1B8A:	0014      	ld         al, #+0x0
    1B8B:	0327      	st         al, @(+0x3, y)
    1B8C:	12E0      	bra        +0x12 <___libgatt_lib_db_4668+0x1C:0x1B9E[p]>
    1B8D:	E315      	ld         al, @0xFFE3 <register uxl>
    1B8E:	E300      	**prefx    0xE3
    1B8F:	3A84      	cmp        al, #-0x1CC6
    1B90:	0EF0      	bne        +0xE <___libgatt_lib_db_4668+0x1C:0x1B9E[p]>
    1B91:	0100      	**prefx    0x1
    1B92:	C900      	**prefx    0xC9
    1B93:	149C      	bsr        +0xC914 <___libgatt_lib_db_4276:0xE4A7[p]>
    1B94:	5115      	ld         al, @0x51 <___libgatt_lib_db_2885>
    1B95:	5019      	ld         x, @0x50 <___libgatt_lib_db_2559>
    1B96:	E311      	ld         ah, @0xFFE3 <register uxl>
    1B97:	0600      	**prefx    0x6
    1B98:	00B4      	or         al, #+0x600
    1B99:	5125      	st         al, @0x51 <___libgatt_lib_db_2885>
    1B9A:	5021      	st         ah, @0x50 <___libgatt_lib_db_2559>
    1B9B:	0100      	**prefx    0x1
    1B9C:	C900      	**prefx    0xC9
    1B9D:	139C      	bsr        +0xC913 <___libgatt_lib_db_4283:0xE4B0[p]>
    1B9E:	010F      	leave      #+0x1

0x00001B9F <___libgatt_lib_db_4207>:
    1B9F:	1300      	**prefx    0x13
    1BA0:	7B14      	ld         al, #+0x137B
    1BA1:	F900      	**prefx    0xF9
    1BA2:	4225      	st         al, @0xF942 <___libgatt_lib_db_2749>
    1BA3:	F700      	**prefx    0xF7
    1BA4:	2B15      	ld         al, @0xF72B <___libgatt_lib_db_3266>
    1BA5:	04B4      	or         al, #+0x4
    1BA6:	F700      	**prefx    0xF7
    1BA7:	2B25      	st         al, @0xF72B <___libgatt_lib_db_3266>
    1BA8:	0014      	ld         al, #+0x0
    1BA9:	F900      	**prefx    0xF9
    1BAA:	4225      	st         al, @0xF942 <___libgatt_lib_db_2749>
    1BAB:	00E2      	bra        0x0, x

0x00001BAC <___libgatt_lib_db_4670>:
    1BAC:	010B      	enter      #+0x1
    1BAD:	A000      	**prefx    0xA0
    1BAE:	C315      	ld         al, @0x9FC3 <DATA_CSTORE_START+0x3F>
    1BAF:	FE00      	**prefx    0xFE
    1BB0:	A125      	st         al, @0xFDA1 <___libgatt_lib_db_3063>
    1BB1:	0018      	ld         x, #+0x0
    1BB2:	9C00      	**prefx    0x9C
    1BB3:	C012      	ld         ah, @(-0x6440, x)
    1BB4:	E015      	ld         al, @0xFFE0 <register ah>
    1BB5:	0434      	add        al, #+0x4
    1BB6:	3FC4      	and        al, #0x3F
    1BB7:	0984      	cmp        al, #+0x9
    1BB8:	04F8      	bcc        +0x4 <___libgatt_lib_db_4670+0x10:0x1BBC[p]>
    1BB9:	E600      	**prefx    0xE6
    1BBA:	0030      	add        ah, #-0x1A00
    1BBB:	03E0      	bra        +0x3 <___libgatt_lib_db_4670+0x12:0x1BBE[p]>
    1BBC:	F000      	**prefx    0xF0
    1BBD:	0030      	add        ah, #-0x1000
    1BBE:	9C00      	**prefx    0x9C
    1BBF:	C022      	st         ah, @(-0x6440, x)
    1BC0:	0138      	add        x, #+0x1
    1BC1:	2788      	cmp        x, #+0x27
    1BC2:	F0F0      	bne        -0x10 <___libgatt_lib_db_4670+0x6:0x1BB2[p]>
    1BC3:	9C00      	**prefx    0x9C
    1BC4:	E715      	ld         al, @0x9BE7 <___libgatt_lib_db_165+0x20>
    1BC5:	1000      	**prefx    0x10
    1BC6:	0034      	add        al, #+0x1000
    1BC7:	9C00      	**prefx    0x9C
    1BC8:	E725      	st         al, @0x9BE7 <___libgatt_lib_db_165+0x20>
    1BC9:	0614      	ld         al, #+0x6
    1BCA:	9C00      	**prefx    0x9C
    1BCB:	8A25      	st         al, @0x9B8A <DATA_RCLUTS_START+0xA>
    1BCC:	9C00      	**prefx    0x9C
    1BCD:	AA25      	st         al, @0x9BAA <DATA_RCLUTS_START+0x2A>
    1BCE:	0100      	**prefx    0x1
    1BCF:	6814      	ld         al, #+0x168
    1BD0:	F700      	**prefx    0xF7
    1BD1:	8925      	st         al, @0xF689 <___libgatt_lib_db_1907>
    1BD2:	0300      	**prefx    0x3
    1BD3:	B014      	ld         al, #+0x2B0
    1BD4:	F700      	**prefx    0xF7
    1BD5:	8A25      	st         al, @0xF68A <___libgatt_lib_db_1906>
    1BD6:	0100      	**prefx    0x1
    1BD7:	C014      	ld         al, #+0xC0
    1BD8:	9C00      	**prefx    0x9C
    1BD9:	9125      	st         al, @0x9B91 <DATA_RCLUTS_START+0x11>
    1BDA:	9C00      	**prefx    0x9C
    1BDB:	B125      	st         al, @0x9BB1 <DATA_RCLUTS_START+0x31>
    1BDC:	0700      	**prefx    0x7
    1BDD:	0E14      	ld         al, #+0x70E
    1BDE:	9C00      	**prefx    0x9C
    1BDF:	8E25      	st         al, @0x9B8E <DATA_RCLUTS_START+0xE>
    1BE0:	9C00      	**prefx    0x9C
    1BE1:	AE25      	st         al, @0x9BAE <DATA_RCLUTS_START+0x2E>
    1BE2:	0C00      	**prefx    0xC
    1BE3:	1214      	ld         al, #+0xC12
    1BE4:	9C00      	**prefx    0x9C
    1BE5:	8F25      	st         al, @0x9B8F <DATA_RCLUTS_START+0xF>
    1BE6:	9C00      	**prefx    0x9C
    1BE7:	AF25      	st         al, @0x9BAF <DATA_RCLUTS_START+0x2F>
    1BE8:	4014      	ld         al, #+0x40
    1BE9:	9C00      	**prefx    0x9C
    1BEA:	9725      	st         al, @0x9B97 <DATA_RCLUTS_START+0x17>
    1BEB:	9C00      	**prefx    0x9C
    1BEC:	B725      	st         al, @0x9BB7 <DATA_RCLUTS_START+0x37>
    1BED:	9B00      	**prefx    0x9B
    1BEE:	7B18      	ld         x, #-0x6485
    1BEF:	FC16      	ld         al, @(-0x4, x)
    1BF0:	0026      	st         al, @(0x0, x)
    1BF1:	FF38      	add        x, #-0x1
    1BF2:	9B00      	**prefx    0x9B
    1BF3:	4788      	cmp        x, #-0x64B9
    1BF4:	FBF0      	bne        -0x5 <___libgatt_lib_db_4670+0x43:0x1BEF[p]>
    1BF5:	EC00      	**prefx    0xEC
    1BF6:	3F14      	ld         al, #-0x13C1
    1BF7:	FA26      	st         al, @(-0x6, x)
    1BF8:	0200      	**prefx    0x2
    1BF9:	3D14      	ld         al, #+0x23D
    1BFA:	FD26      	st         al, @(-0x3, x)
    1BFB:	EC00      	**prefx    0xEC
    1BFC:	3B14      	ld         al, #-0x13C5
    1BFD:	1E26      	st         al, @(+0x1E, x)
    1BFE:	0200      	**prefx    0x2
    1BFF:	3D14      	ld         al, #+0x23D
    1C00:	2126      	st         al, @(+0x21, x)
    1C01:	0400      	**prefx    0x4
    1C02:	0714      	ld         al, #+0x407
    1C03:	9B00      	**prefx    0x9B
    1C04:	2025      	st         al, @0x9B20 <DATA_RADIODATA_START>
    1C05:	0D00      	**prefx    0xD
    1C06:	0814      	ld         al, #+0xD08
    1C07:	9B00      	**prefx    0x9B
    1C08:	2225      	st         al, @0x9B22 <DATA_RADIODATA_START+0x2>
    1C09:	0500      	**prefx    0x5
    1C0A:	2F14      	ld         al, #+0x52F
    1C0B:	9B00      	**prefx    0x9B
    1C0C:	2425      	st         al, @0x9B24 <DATA_RADIODATA_START+0x4>
    1C0D:	0E00      	**prefx    0xE
    1C0E:	1014      	ld         al, #+0xE10
    1C0F:	9B00      	**prefx    0x9B
    1C10:	2625      	st         al, @0x9B26 <DATA_RADIODATA_START+0x6>
    1C11:	2134      	add        al, #+0x21
    1C12:	9B00      	**prefx    0x9B
    1C13:	2725      	st         al, @0x9B27 <DATA_RADIODATA_START+0x7>
    1C14:	010F      	leave      #+0x1

0x00001C15 <___libgatt_lib_db_4673>:
    1C15:	010B      	enter      #+0x1
    1C16:	0100      	**prefx    0x1
    1C17:	DD00      	**prefx    0xDD
    1C18:	209C      	bsr        +0xDD20 <___libgatt_lib_db_4505:0xF938[p]>
    1C19:	E199      	tst        @0xFFE1 <register al>
    1C1A:	06F0      	bne        +0x6 <___libgatt_lib_db_4673+0xB:0x1C20[p]>
    1C1B:	0100      	**prefx    0x1
    1C1C:	9D00      	**prefx    0x9D
    1C1D:	DC9C      	bsr        +0x9CDC <___libgatt_lib_db_4006:0xB8F9[p]>
    1C1E:	E199      	tst        @0xFFE1 <register al>
    1C1F:	04F4      	beq        +0x4 <___libgatt_lib_db_4673+0xE:0x1C23[p]>
    1C20:	E800      	**prefx    0xE8
    1C21:	8214      	ld         al, #-0x187E
    1C22:	0027      	st         al, @(0x0, y)
    1C23:	010F      	leave      #+0x1

0x00001C24 <___libgatt_lib_db_4675>:
    1C24:	1117      	ld         al, @(+0x11, y)
    1C25:	0A84      	cmp        al, #+0xA
    1C26:	02F0      	bne        +0x2 <___libgatt_lib_db_4675+0x4:0x1C28[p]>
    1C27:	130F      	leave      #+0x13
    1C28:	00E2      	bra        0x0, x

0x00001C29 <___libgatt_lib_db_4694>:
    1C29:	020B      	enter      #+0x2
    1C2A:	F900      	**prefx    0xF9
    1C2B:	4215      	ld         al, @0xF942 <___libgatt_lib_db_2749>
    1C2C:	0027      	st         al, @(0x0, y)
    1C2D:	1300      	**prefx    0x13
    1C2E:	7B14      	ld         al, #+0x137B
    1C2F:	F900      	**prefx    0xF9
    1C30:	4225      	st         al, @0xF942 <___libgatt_lib_db_2749>
    1C31:	F700      	**prefx    0xF7
    1C32:	2815      	ld         al, @0xF728 <___libgatt_lib_db_3263>
    1C33:	F200      	**prefx    0xF2
    1C34:	FFC4      	and        al, #0xF1FF
    1C35:	F700      	**prefx    0xF7
    1C36:	2825      	st         al, @0xF728 <___libgatt_lib_db_3263>
    1C37:	F700      	**prefx    0xF7
    1C38:	2C15      	ld         al, @0xF72C <___libgatt_lib_db_3267>
    1C39:	FD00      	**prefx    0xFD
    1C3A:	FFC4      	and        al, #0xFCFF
    1C3B:	F700      	**prefx    0xF7
    1C3C:	2C25      	st         al, @0xF72C <___libgatt_lib_db_3267>
    1C3D:	3E00      	**prefx    0x3E
    1C3E:	3A15      	ld         al, @0x3E3A <enable_lo_offset_adc_update+0x5>
    1C3F:	F900      	**prefx    0xF9
    1C40:	3B34      	add        al, #-0x6C5
    1C41:	FF27      	st         al, @(-0x1, y)
    1C42:	FF9F      	bsr        @(-0x1, y)
    1C43:	9500      	**prefx    0x95
    1C44:	2225      	st         al, @0x9522 <___libgatt_lib_db_95+0x9>
    1C45:	2784      	cmp        al, #+0x27
    1C46:	0328      	ble        +0x3 <___libgatt_lib_db_4694+0x20:0x1C49[p]>
    1C47:	0014      	ld         al, #+0x0
    1C48:	02E0      	bra        +0x2 <___libgatt_lib_db_4694+0x21:0x1C4A[p]>
    1C49:	0214      	ld         al, #+0x2
    1C4A:	F400      	**prefx    0xF4
    1C4B:	9D19      	ld         x, @0xF39D <___libgatt_lib_db_3238>
    1C4C:	09A0      	asl        #0x9
    1C4D:	F200      	**prefx    0xF2
    1C4E:	FFC8      	and        x, #0xF1FF
    1C4F:	E1B9      	or         x, @0xFFE1 <register al>
    1C50:	F400      	**prefx    0xF4
    1C51:	9D29      	st         x, @0xF39D <___libgatt_lib_db_3238>
    1C52:	9500      	**prefx    0x95
    1C53:	1611      	ld         ah, @0x9516 <___libgatt_lib_db_91+0x1>
    1C54:	F200      	**prefx    0xF2
    1C55:	FFC0      	and        ah, #0xF1FF
    1C56:	E1B1      	or         ah, @0xFFE1 <register al>
    1C57:	9500      	**prefx    0x95
    1C58:	1621      	st         ah, @0x9516 <___libgatt_lib_db_91+0x1>
    1C59:	9500      	**prefx    0x95
    1C5A:	1C11      	ld         ah, @0x951C <___libgatt_lib_db_95+0x3>
    1C5B:	F200      	**prefx    0xF2
    1C5C:	FFC0      	and        ah, #0xF1FF
    1C5D:	E0B5      	or         al, @0xFFE0 <register ah>
    1C5E:	9500      	**prefx    0x95
    1C5F:	1C25      	st         al, @0x951C <___libgatt_lib_db_95+0x3>
    1C60:	0017      	ld         al, @(0x0, y)
    1C61:	F900      	**prefx    0xF9
    1C62:	4225      	st         al, @0xF942 <___libgatt_lib_db_2749>
    1C63:	020F      	leave      #+0x2

0x00001C64 <___libgatt_lib_db_4693>:
    1C64:	010B      	enter      #+0x1
    1C65:	0017      	ld         al, @(0x0, y)
    1C66:	F400      	**prefx    0xF4
    1C67:	EA84      	cmp        al, #-0xC16
    1C68:	05F4      	beq        +0x5 <___libgatt_lib_db_4693+0x9:0x1C6D[p]>
    1C69:	F400      	**prefx    0xF4
    1C6A:	0784      	cmp        al, #-0xBF9
    1C6B:	11F0      	bne        +0x11 <___libgatt_lib_db_4693+0x18:0x1C7C[p]>
    1C6C:	0FE0      	bra        +0xF <___libgatt_lib_db_4693+0x17:0x1C7B[p]>
    1C6D:	F400      	**prefx    0xF4
    1C6E:	FE14      	ld         al, #-0xC02
    1C6F:	0027      	st         al, @(0x0, y)
    1C70:	3E00      	**prefx    0x3E
    1C71:	3A19      	ld         x, @0x3E3A <enable_lo_offset_adc_update+0x5>
    1C72:	F900      	**prefx    0xF9
    1C73:	3E38      	add        x, #-0x6C2
    1C74:	9500      	**prefx    0x95
    1C75:	2215      	ld         al, @0x9522 <___libgatt_lib_db_95+0x9>
    1C76:	0410      	ld         ah, #+0x4
    1C77:	FF2B      	st         x, @(-0x1, y)
    1C78:	FF9F      	bsr        @(-0x1, y)
    1C79:	E199      	tst        @0xFFE1 <register al>
    1C7A:	02F4      	beq        +0x2 <___libgatt_lib_db_4693+0x18:0x1C7C[p]>
    1C7B:	AE9C      	bsr        -0x52 <___libgatt_lib_db_4694:0x1C29[p]>
    1C7C:	010F      	leave      #+0x1

0x00001C7D <___libgatt_lib_db_4691>:
    1C7D:	020B      	enter      #+0x2
    1C7E:	F900      	**prefx    0xF9
    1C7F:	4215      	ld         al, @0xF942 <___libgatt_lib_db_2749>
    1C80:	0027      	st         al, @(0x0, y)
    1C81:	1300      	**prefx    0x13
    1C82:	7B14      	ld         al, #+0x137B
    1C83:	F900      	**prefx    0xF9
    1C84:	4225      	st         al, @0xF942 <___libgatt_lib_db_2749>
    1C85:	FA00      	**prefx    0xFA
    1C86:	9215      	ld         al, @0xF992 <___libgatt_lib_db_738>
    1C87:	02B4      	or         al, #+0x2
    1C88:	FA00      	**prefx    0xFA
    1C89:	9225      	st         al, @0xF992 <___libgatt_lib_db_738>
    1C8A:	0114      	ld         al, #+0x1
    1C8B:	0100      	**prefx    0x1
    1C8C:	C39C      	bsr        +0xC3 <___libgatt_lib_db_4708:0x1D4F[p]>
    1C8D:	9900      	**prefx    0x99
    1C8E:	4825      	st         al, @0x9948 <cached_vbg>
    1C8F:	FA00      	**prefx    0xFA
    1C90:	9215      	ld         al, @0xF992 <___libgatt_lib_db_738>
    1C91:	FDC4      	and        al, #0xFFFD
    1C92:	FA00      	**prefx    0xFA
    1C93:	9225      	st         al, @0xF992 <___libgatt_lib_db_738>
    1C94:	0017      	ld         al, @(0x0, y)
    1C95:	F900      	**prefx    0xF9
    1C96:	4225      	st         al, @0xF942 <___libgatt_lib_db_2749>
    1C97:	F300      	**prefx    0xF3
    1C98:	2E14      	ld         al, #-0xCD2
    1C99:	0127      	st         al, @(+0x1, y)
    1C9A:	020F      	leave      #+0x2

0x00001C9B <___libgatt_lib_db_4692>:
    1C9B:	010B      	enter      #+0x1
    1C9C:	0117      	ld         al, @(+0x1, y)
    1C9D:	F825      	st         al, @0xFFF8 <(scratchpad)>
    1C9E:	08F0      	bne        +0x8 <___libgatt_lib_db_4692+0xB:0x1CA6[p]>
    1C9F:	A000      	**prefx    0xA0
    1CA0:	9D15      	ld         al, @0x9F9D <DATA_CSTORE_START+0x19>
    1CA1:	0284      	cmp        al, #+0x2
    1CA2:	04F0      	bne        +0x4 <___libgatt_lib_db_4692+0xB:0x1CA6[p]>
    1CA3:	9500      	**prefx    0x95
    1CA4:	1C18      	ld         x, #-0x6AE4
    1CA5:	03E0      	bra        +0x3 <___libgatt_lib_db_4692+0xD:0x1CA8[p]>
    1CA6:	9500      	**prefx    0x95
    1CA7:	1618      	ld         x, #-0x6AEA
    1CA8:	1300      	**prefx    0x13
    1CA9:	7B14      	ld         al, #+0x137B
    1CAA:	F900      	**prefx    0xF9
    1CAB:	4225      	st         al, @0xF942 <___libgatt_lib_db_2749>
    1CAC:	0614      	ld         al, #+0x6
    1CAD:	F400      	**prefx    0xF4
    1CAE:	9D10      	ld         ah, #-0xC63
    1CAF:	FD09      	bc2        
    1CB0:	F899      	tst        @0xFFF8 <(scratchpad)>
    1CB1:	05F4      	beq        +0x5 <___libgatt_lib_db_4692+0x1B:0x1CB6[p]>
    1CB2:	F000      	**prefx    0xF0
    1CB3:	3515      	ld         al, @0xF035 <___libgatt_lib_db_1169>
    1CB4:	FDC4      	and        al, #0xFFFD
    1CB5:	0AE0      	bra        +0xA <___libgatt_lib_db_4692+0x24:0x1CBF[p]>
    1CB6:	2014      	ld         al, #+0x20
    1CB7:	F000      	**prefx    0xF0
    1CB8:	0A10      	ld         ah, #-0xFF6
    1CB9:	9C00      	**prefx    0x9C
    1CBA:	A018      	ld         x, #-0x6460
    1CBB:	FD09      	bc2        
    1CBC:	F000      	**prefx    0xF0
    1CBD:	3515      	ld         al, @0xF035 <___libgatt_lib_db_1169>
    1CBE:	02B4      	or         al, #+0x2
    1CBF:	F000      	**prefx    0xF0
    1CC0:	3525      	st         al, @0xF035 <___libgatt_lib_db_1169>
    1CC1:	0014      	ld         al, #+0x0
    1CC2:	F900      	**prefx    0xF9
    1CC3:	4225      	st         al, @0xF942 <___libgatt_lib_db_2749>
    1CC4:	F815      	ld         al, @0xFFF8 <(scratchpad)>
    1CC5:	9500      	**prefx    0x95
    1CC6:	1525      	st         al, @0x9515 <___libgatt_lib_db_91>
    1CC7:	030F      	leave      #+0x3
    1CC8:	010F      	leave      #+0x1

0x00001CC9 <___libgatt_lib_db_4706>:
    1CC9:	070B      	enter      #+0x7
    1CCA:	0B17      	ld         al, @(+0xB, y)
    1CCB:	04F4      	beq        +0x4 <___libgatt_lib_db_4706+0x6:0x1CCF[p]>
    1CCC:	0014      	ld         al, #+0x0
    1CCD:	0100      	**prefx    0x1
    1CCE:	80E0      	bra        +0x80 <___libgatt_lib_db_4706+0x85:0x1D4E[p]>
    1CCF:	0E17      	ld         al, @(+0xE, y)
    1CD0:	7BF4      	beq        +0x7B <___libgatt_lib_db_4706+0x82:0x1D4B[p]>
    1CD1:	3E00      	**prefx    0x3E
    1CD2:	3B15      	ld         al, @0x3E3B <enable_lo_offset_adc_update+0x6>
    1CD3:	F300      	**prefx    0xF3
    1CD4:	F234      	add        al, #-0xD0E
    1CD5:	FF27      	st         al, @(-0x1, y)
    1CD6:	FF9F      	bsr        @(-0x1, y)
    1CD7:	0527      	st         al, @(+0x5, y)
    1CD8:	3E00      	**prefx    0x3E
    1CD9:	3B11      	ld         ah, @0x3E3B <enable_lo_offset_adc_update+0x6>
    1CDA:	F900      	**prefx    0xF9
    1CDB:	4D30      	add        ah, #-0x6B3
    1CDC:	FF23      	st         ah, @(-0x1, y)
    1CDD:	FF9F      	bsr        @(-0x1, y)
    1CDE:	1300      	**prefx    0x13
    1CDF:	7B10      	ld         ah, #+0x137B
    1CE0:	F900      	**prefx    0xF9
    1CE1:	4221      	st         ah, @0xF942 <___libgatt_lib_db_2749>
    1CE2:	F400      	**prefx    0xF4
    1CE3:	9E15      	ld         al, @0xF39E <___libgatt_lib_db_3239>
    1CE4:	01B4      	or         al, #+0x1
    1CE5:	F400      	**prefx    0xF4
    1CE6:	9E25      	st         al, @0xF39E <___libgatt_lib_db_3239>
    1CE7:	F400      	**prefx    0xF4
    1CE8:	A215      	ld         al, @0xF3A2 <___libgatt_lib_db_3243>
    1CE9:	F3C4      	and        al, #0xFFF3
    1CEA:	F400      	**prefx    0xF4
    1CEB:	A225      	st         al, @0xF3A2 <___libgatt_lib_db_3243>
    1CEC:	F400      	**prefx    0xF4
    1CED:	9C15      	ld         al, @0xF39C <___libgatt_lib_db_3237>
    1CEE:	E0C4      	and        al, #0xFFE0
    1CEF:	08B4      	or         al, #+0x8
    1CF0:	F400      	**prefx    0xF4
    1CF1:	9C25      	st         al, @0xF39C <___libgatt_lib_db_3237>
    1CF2:	F400      	**prefx    0xF4
    1CF3:	9C15      	ld         al, @0xF39C <___libgatt_lib_db_3237>
    1CF4:	FC00      	**prefx    0xFC
    1CF5:	1FC4      	and        al, #0xFC1F
    1CF6:	F400      	**prefx    0xF4
    1CF7:	9C25      	st         al, @0xF39C <___libgatt_lib_db_3237>
    1CF8:	0714      	ld         al, #+0x7
    1CF9:	569C      	bsr        +0x56 <___libgatt_lib_db_4708:0x1D4F[p]>
    1CFA:	F825      	st         al, @0xFFF8 <(scratchpad)>
    1CFB:	F400      	**prefx    0xF4
    1CFC:	9C15      	ld         al, @0xF39C <___libgatt_lib_db_3237>
    1CFD:	E0C4      	and        al, #0xFFE0
    1CFE:	F400      	**prefx    0xF4
    1CFF:	9C25      	st         al, @0xF39C <___libgatt_lib_db_3237>
    1D00:	F400      	**prefx    0xF4
    1D01:	A215      	ld         al, @0xF3A2 <___libgatt_lib_db_3243>
    1D02:	F3C4      	and        al, #0xFFF3
    1D03:	F400      	**prefx    0xF4
    1D04:	A225      	st         al, @0xF3A2 <___libgatt_lib_db_3243>
    1D05:	F400      	**prefx    0xF4
    1D06:	9E15      	ld         al, @0xF39E <___libgatt_lib_db_3239>
    1D07:	FEC4      	and        al, #0xFFFE
    1D08:	F400      	**prefx    0xF4
    1D09:	9E25      	st         al, @0xF39E <___libgatt_lib_db_3239>
    1D0A:	0014      	ld         al, #+0x0
    1D0B:	F900      	**prefx    0xF9
    1D0C:	4225      	st         al, @0xF942 <___libgatt_lib_db_2749>
    1D0D:	0513      	ld         ah, @(+0x5, y)
    1D0E:	0009      	**unsigned
    1D0F:	01A4      	lsr        #0x1
    1D10:	E019      	ld         x, @0xFFE0 <register ah>
    1D11:	F815      	ld         al, @0xFFF8 <(scratchpad)>
    1D12:	0009      	**unsigned
    1D13:	0C00      	**prefx    0xC
    1D14:	B890      	umult      #0xBB8
    1D15:	F925      	st         al, @0xFFF9 <(scratchpad)>
    1D16:	F821      	st         ah, @0xFFF8 <(scratchpad)>
    1D17:	0010      	ld         ah, #+0x0
    1D18:	E315      	ld         al, @0xFFE3 <register uxl>
    1D19:	F935      	add        al, @0xFFF9 <(scratchpad)>
    1D1A:	F841      	addc       ah, @0xFFF8 <(scratchpad)>
    1D1B:	0127      	st         al, @(+0x1, y)
    1D1C:	0023      	st         ah, @(0x0, y)
    1D1D:	0014      	ld         al, #+0x0
    1D1E:	0513      	ld         ah, @(+0x5, y)
    1D1F:	7000      	**prefx    0x70
    1D20:	529C      	bsr        +0x7052 <___libgatt_lib_db_3943:0x8D72[p]>
    1D21:	9500      	**prefx    0x95
    1D22:	2625      	st         al, @0x9526 <___libgatt_lib_db_95+0xD>
    1D23:	A000      	**prefx    0xA0
    1D24:	B711      	ld         ah, @0x9FB7 <DATA_CSTORE_START+0x33>
    1D25:	E085      	cmp        al, @0xFFE0 <register ah>
    1D26:	04F8      	bcc        +0x4 <___libgatt_lib_db_4706+0x61:0x1D2A[p]>
    1D27:	9500      	**prefx    0x95
    1D28:	2581      	cmp        ah, @0x9525 <___libgatt_lib_db_95+0xC>
    1D29:	08FC      	bcs        +0x8 <___libgatt_lib_db_4706+0x68:0x1D31[p]>
    1D2A:	9500      	**prefx    0x95
    1D2B:	2515      	ld         al, @0x9525 <___libgatt_lib_db_95+0xC>
    1D2C:	E085      	cmp        al, @0xFFE0 <register ah>
    1D2D:	1DF8      	bcc        +0x1D <___libgatt_lib_db_4706+0x81:0x1D4A[p]>
    1D2E:	9500      	**prefx    0x95
    1D2F:	2681      	cmp        ah, @0x9526 <___libgatt_lib_db_95+0xD>
    1D30:	1AF8      	bcc        +0x1A <___libgatt_lib_db_4706+0x81:0x1D4A[p]>
    1D31:	9500      	**prefx    0x95
    1D32:	2615      	ld         al, @0x9526 <___libgatt_lib_db_95+0xD>
    1D33:	0018      	ld         x, #+0x0
    1D34:	022B      	st         x, @(+0x2, y)
    1D35:	E085      	cmp        al, @0xFFE0 <register ah>
    1D36:	03F8      	bcc        +0x3 <___libgatt_lib_db_4706+0x70:0x1D39[p]>
    1D37:	0114      	ld         al, #+0x1
    1D38:	0227      	st         al, @(+0x2, y)
    1D39:	0423      	st         ah, @(+0x4, y)
    1D3A:	9500      	**prefx    0x95
    1D3B:	2619      	ld         x, @0x9526 <___libgatt_lib_db_95+0xD>
    1D3C:	032B      	st         x, @(+0x3, y)
    1D3D:	3E00      	**prefx    0x3E
    1D3E:	3B19      	ld         x, @0x3E3B <enable_lo_offset_adc_update+0x6>
    1D3F:	F600      	**prefx    0xF6
    1D40:	9438      	add        x, #-0xA6C
    1D41:	0114      	ld         al, #+0x1
    1D42:	E411      	ld         ah, @0xFFE4 <register uy>
    1D43:	0230      	add        ah, #+0x2
    1D44:	FF2B      	st         x, @(-0x1, y)
    1D45:	FF9F      	bsr        @(-0x1, y)
    1D46:	9500      	**prefx    0x95
    1D47:	2611      	ld         ah, @0x9526 <___libgatt_lib_db_95+0xD>
    1D48:	9500      	**prefx    0x95
    1D49:	2521      	st         ah, @0x9525 <___libgatt_lib_db_95+0xC>
    1D4A:	0114      	ld         al, #+0x1
    1D4B:	FA00      	**prefx    0xFA
    1D4C:	0A18      	ld         x, #-0x5F6
    1D4D:	062B      	st         x, @(+0x6, y)
    1D4E:	070F      	leave      #+0x7

0x00001D4F <___libgatt_lib_db_4708>:
    1D4F:	060B      	enter      #+0x6
    1D50:	0427      	st         al, @(+0x4, y)
    1D51:	0100      	**prefx    0x1
    1D52:	DE00      	**prefx    0xDE
    1D53:	079C      	bsr        +0xDE07 <___libgatt_lib_db_4519:0xFB5A[p]>
    1D54:	0127      	st         al, @(+0x1, y)
    1D55:	0327      	st         al, @(+0x3, y)
    1D56:	0227      	st         al, @(+0x2, y)
    1D57:	0514      	ld         al, #+0x5
    1D58:	0027      	st         al, @(0x0, y)
    1D59:	10E0      	bra        +0x10 <___libgatt_lib_db_4708+0x1A:0x1D69[p]>
    1D5A:	0417      	ld         al, @(+0x4, y)
    1D5B:	0100      	**prefx    0x1
    1D5C:	DE00      	**prefx    0xDE
    1D5D:	FD9C      	bsr        +0xDDFD <___libgatt_lib_db_4519:0xFB5A[p]>
    1D5E:	011B      	ld         x, @(+0x1, y)
    1D5F:	E139      	add        x, @0xFFE1 <register al>
    1D60:	012B      	st         x, @(+0x1, y)
    1D61:	021B      	ld         x, @(+0x2, y)
    1D62:	E189      	cmp        x, @0xFFE1 <register al>
    1D63:	02F8      	bcc        +0x2 <___libgatt_lib_db_4708+0x16:0x1D65[p]>
    1D64:	0227      	st         al, @(+0x2, y)
    1D65:	031B      	ld         x, @(+0x3, y)
    1D66:	E189      	cmp        x, @0xFFE1 <register al>
    1D67:	022C      	bcz        +0x2 <___libgatt_lib_db_4708+0x1A:0x1D69[p]>
    1D68:	0327      	st         al, @(+0x3, y)
    1D69:	0017      	ld         al, @(0x0, y)
    1D6A:	FF34      	add        al, #-0x1
    1D6B:	0027      	st         al, @(0x0, y)
    1D6C:	FF84      	cmp        al, #-0x1
    1D6D:	EDF0      	bne        -0x13 <___libgatt_lib_db_4708+0xB:0x1D5A[p]>
    1D6E:	011B      	ld         x, @(+0x1, y)
    1D6F:	035B      	sub        x, @(+0x3, y)
    1D70:	025B      	sub        x, @(+0x2, y)
    1D71:	E311      	ld         ah, @0xFFE3 <register uxl>
    1D72:	0009      	**unsigned
    1D73:	02A4      	lsr        #0x2
    1D74:	E015      	ld         al, @0xFFE0 <register ah>
    1D75:	060F      	leave      #+0x6
